###############################################################################
#                                                                             #
# IAR C/C++ Compiler V7.51A/W32 for 8051                11/Apr/2014  23:18:59 #
# Copyright 2004-2009 IAR Systems AB.                                         #
#                                                                             #
#    Core               =  plain                                              #
#    Code model         =  banked                                             #
#    Data model         =  large                                              #
#    Calling convention =  xdata reentrant                                    #
#    Constant location  =  data_rom                                           #
#    Dptr setup         =  1,16                                               #
#    Source file        =  C:\Documents and Settings\Administrator\My         #
#                          Documents\Dropbox\【光盘】物联网嵌入式平台II型―― #
#                          博创科技\物联网无线传感网络部分\exp\zigbee\实验四  #
#                          无线自组网实验\Projects\zstack\Samples\SampleApp\S #
#                          ource\SampleApp.c                                  #
#    Command line       =  -f "C:\Documents and Settings\Administrator\My     #
#                          Documents\Dropbox\【光盘】物联网嵌入式平台II型―― #
#                          博创科技\物联网无线传感网络部分\exp\zigbee\实验四  #
#                          无线自组网实验\Projects\zstack\Samples\SampleApp\C #
#                          C2530DB\..\..\..\Tools\CC2530DB\f8wCoord.cfg"      #
#                          (-DCPU32MHZ -DROOT=__near_func                     #
#                          -DMAC_CFG_APP_PENDING_QUEUE=TRUE                   #
#                          -DZDO_COORDINATOR -DRTR_NWK -DBLINK_LEDS) -f       #
#                          "C:\Documents and Settings\Administrator\My        #
#                          Documents\Dropbox\【光盘】物联网嵌入式平台II型―― #
#                          博创科技\物联网无线传感网络部分\exp\zigbee\实验四  #
#                          无线自组网实验\Projects\zstack\Samples\SampleApp\C #
#                          C2530DB\..\..\..\Tools\CC2530DB\f8wConfig.cfg"     #
#                          (-DSECURE=0 -DZG_SECURE_DYNAMIC=0 -DREFLECTOR      #
#                          -DDEFAULT_CHANLIST=0x00000800                      #
#                          -DZDAPP_CONFIG_PAN_ID=0x0011                       #
#                          -DNWK_START_DELAY=100 -DEXTENDED_JOINING_RANDOM_MA #
#                          SK=0x007F -DBEACON_REQUEST_DELAY=100               #
#                          -DBEACON_REQ_DELAY_MASK=0x00FF                     #
#                          -DROUTE_EXPIRY_TIME=30 -DAPSC_ACK_WAIT_DURATION_PO #
#                          LLED=3000 -DNWK_INDIRECT_MSG_TIMEOUT=7             #
#                          -DMAX_RREQ_ENTRIES=8 -DAPSC_MAX_FRAME_RETRIES=3    #
#                          -DNWK_MAX_DATA_RETRIES=2                           #
#                          -DMAX_POLL_FAILURE_RETRIES=2 -DMAX_BCAST=9         #
#                          -DAPS_MAX_GROUPS=16 -DMAX_RTG_ENTRIES=40           #
#                          -DNWK_MAX_BINDING_ENTRIES=4                        #
#                          -DMAX_BINDING_CLUSTER_IDS=4 "-DDEFAULT_KEY={0x01,  #
#                          0x03, 0x05, 0x07, 0x09, 0x0B, 0x0D, 0x0F, 0x00,    #
#                          0x02, 0x04, 0x06, 0x08, 0x0A, 0x0C, 0x0D}"         #
#                          -DMAC_MAX_FRAME_SIZE=116 "-DCONST=const __code"    #
#                          -DGENERIC=__generic -DRFD_RCVC_ALWAYS_ON=FALSE     #
#                          -DPOLL_RATE=1000 -DQUEUED_POLL_RATE=100            #
#                          -DRESPONSE_POLL_RATE=100) -DREJOIN_POLL_RATE=440   #
#                          "C:\Documents and Settings\Administrator\My        #
#                          Documents\Dropbox\【光盘】物联网嵌入式平台II型―― #
#                          博创科技\物联网无线传感网络部分\exp\zigbee\实验四  #
#                          无线自组网实验\Projects\zstack\Samples\SampleApp\S #
#                          ource\SampleApp.c" -D ZAPP_P1 -D MT_TASK -D        #
#                          MT_SYS_FUNC -D MT_ZDO_FUNC -D                      #
#                          xLCD_SUPPORTED=DEBUG -lC "C:\Documents and         #
#                          Settings\Administrator\My                          #
#                          Documents\Dropbox\【光盘】物联网嵌入式平台II型―― #
#                          博创科技\物联网无线传感网络部分\exp\zigbee\实验四  #
#                          无线自组网实验\Projects\zstack\Samples\SampleApp\C #
#                          C2530DB\CoordinatorEB\List\" -lA "C:\Documents     #
#                          and Settings\Administrator\My                      #
#                          Documents\Dropbox\【光盘】物联网嵌入式平台II型―― #
#                          博创科技\物联网无线传感网络部分\exp\zigbee\实验四  #
#                          无线自组网实验\Projects\zstack\Samples\SampleApp\C #
#                          C2530DB\CoordinatorEB\List\" --diag_suppress       #
#                          Pe001,Pa010 -o "C:\Documents and                   #
#                          Settings\Administrator\My                          #
#                          Documents\Dropbox\【光盘】物联网嵌入式平台II型―― #
#                          博创科技\物联网无线传感网络部分\exp\zigbee\实验四  #
#                          无线自组网实验\Projects\zstack\Samples\SampleApp\C #
#                          C2530DB\CoordinatorEB\Obj\" -e                     #
#                          --require_prototypes --debug --core=plain          #
#                          --dptr=16,1 --data_model=large                     #
#                          --code_model=banked --calling_convention=xdata_ree #
#                          ntrant --place_constants=data_rom                  #
#                          --nr_virtual_regs 8 -I "C:\Documents and           #
#                          Settings\Administrator\My                          #
#                          Documents\Dropbox\【光盘】物联网嵌入式平台II型―― #
#                          博创科技\物联网无线传感网络部分\exp\zigbee\实验四  #
#                          无线自组网实验\Projects\zstack\Samples\SampleApp\C #
#                          C2530DB\" -I "C:\Documents and                     #
#                          Settings\Administrator\My                          #
#                          Documents\Dropbox\【光盘】物联网嵌入式平台II型―― #
#                          博创科技\物联网无线传感网络部分\exp\zigbee\实验四  #
#                          无线自组网实验\Projects\zstack\Samples\SampleApp\C #
#                          C2530DB\..\SOURCE\" -I "C:\Documents and           #
#                          Settings\Administrator\My                          #
#                          Documents\Dropbox\【光盘】物联网嵌入式平台II型―― #
#                          博创科技\物联网无线传感网络部分\exp\zigbee\实验四  #
#                          无线自组网实验\Projects\zstack\Samples\SampleApp\C #
#                          C2530DB\..\..\..\ZMAIN\TI2530DB\" -I               #
#                          "C:\Documents and Settings\Administrator\My        #
#                          Documents\Dropbox\【光盘】物联网嵌入式平台II型―― #
#                          博创科技\物联网无线传感网络部分\exp\zigbee\实验四  #
#                          无线自组网实验\Projects\zstack\Samples\SampleApp\C #
#                          C2530DB\..\..\..\..\..\COMPONENTS\MT\" -I          #
#                          "C:\Documents and Settings\Administrator\My        #
#                          Documents\Dropbox\【光盘】物联网嵌入式平台II型―― #
#                          博创科技\物联网无线传感网络部分\exp\zigbee\实验四  #
#                          无线自组网实验\Projects\zstack\Samples\SampleApp\C #
#                          C2530DB\..\..\..\..\..\COMPONENTS\HAL\INCLUDE\"    #
#                          -I "C:\Documents and Settings\Administrator\My     #
#                          Documents\Dropbox\【光盘】物联网嵌入式平台II型―― #
#                          博创科技\物联网无线传感网络部分\exp\zigbee\实验四  #
#                          无线自组网实验\Projects\zstack\Samples\SampleApp\C #
#                          C2530DB\..\..\..\..\..\COMPONENTS\HAL\TARGET\CC253 #
#                          0EB\" -I "C:\Documents and                         #
#                          Settings\Administrator\My                          #
#                          Documents\Dropbox\【光盘】物联网嵌入式平台II型―― #
#                          博创科技\物联网无线传感网络部分\exp\zigbee\实验四  #
#                          无线自组网实验\Projects\zstack\Samples\SampleApp\C #
#                          C2530DB\..\..\..\..\..\COMPONENTS\OSAL\MCU\CCSOC\" #
#                           -I "C:\Documents and Settings\Administrator\My    #
#                          Documents\Dropbox\【光盘】物联网嵌入式平台II型―― #
#                          博创科技\物联网无线传感网络部分\exp\zigbee\实验四  #
#                          无线自组网实验\Projects\zstack\Samples\SampleApp\C #
#                          C2530DB\..\..\..\..\..\COMPONENTS\OSAL\INCLUDE\"   #
#                          -I "C:\Documents and Settings\Administrator\My     #
#                          Documents\Dropbox\【光盘】物联网嵌入式平台II型―― #
#                          博创科技\物联网无线传感网络部分\exp\zigbee\实验四  #
#                          无线自组网实验\Projects\zstack\Samples\SampleApp\C #
#                          C2530DB\..\..\..\..\..\COMPONENTS\STACK\AF\" -I    #
#                          "C:\Documents and Settings\Administrator\My        #
#                          Documents\Dropbox\【光盘】物联网嵌入式平台II型―― #
#                          博创科技\物联网无线传感网络部分\exp\zigbee\实验四  #
#                          无线自组网实验\Projects\zstack\Samples\SampleApp\C #
#                          C2530DB\..\..\..\..\..\COMPONENTS\STACK\NWK\" -I   #
#                          "C:\Documents and Settings\Administrator\My        #
#                          Documents\Dropbox\【光盘】物联网嵌入式平台II型―― #
#                          博创科技\物联网无线传感网络部分\exp\zigbee\实验四  #
#                          无线自组网实验\Projects\zstack\Samples\SampleApp\C #
#                          C2530DB\..\..\..\..\..\COMPONENTS\STACK\SEC\" -I   #
#                          "C:\Documents and Settings\Administrator\My        #
#                          Documents\Dropbox\【光盘】物联网嵌入式平台II型―― #
#                          博创科技\物联网无线传感网络部分\exp\zigbee\实验四  #
#                          无线自组网实验\Projects\zstack\Samples\SampleApp\C #
#                          C2530DB\..\..\..\..\..\COMPONENTS\STACK\SAPI\" -I  #
#                          "C:\Documents and Settings\Administrator\My        #
#                          Documents\Dropbox\【光盘】物联网嵌入式平台II型―― #
#                          博创科技\物联网无线传感网络部分\exp\zigbee\实验四  #
#                          无线自组网实验\Projects\zstack\Samples\SampleApp\C #
#                          C2530DB\..\..\..\..\..\COMPONENTS\STACK\SYS\" -I   #
#                          "C:\Documents and Settings\Administrator\My        #
#                          Documents\Dropbox\【光盘】物联网嵌入式平台II型―― #
#                          博创科技\物联网无线传感网络部分\exp\zigbee\实验四  #
#                          无线自组网实验\Projects\zstack\Samples\SampleApp\C #
#                          C2530DB\..\..\..\..\..\COMPONENTS\STACK\ZDO\" -I   #
#                          "C:\Documents and Settings\Administrator\My        #
#                          Documents\Dropbox\【光盘】物联网嵌入式平台II型―― #
#                          博创科技\物联网无线传感网络部分\exp\zigbee\实验四  #
#                          无线自组网实验\Projects\zstack\Samples\SampleApp\C #
#                          C2530DB\..\..\..\..\..\COMPONENTS\ZMAC\F8W\" -I    #
#                          "C:\Documents and Settings\Administrator\My        #
#                          Documents\Dropbox\【光盘】物联网嵌入式平台II型―― #
#                          博创科技\物联网无线传感网络部分\exp\zigbee\实验四  #
#                          无线自组网实验\Projects\zstack\Samples\SampleApp\C #
#                          C2530DB\..\..\..\..\..\COMPONENTS\ZMAC\" -I        #
#                          "C:\Documents and Settings\Administrator\My        #
#                          Documents\Dropbox\【光盘】物联网嵌入式平台II型―― #
#                          博创科技\物联网无线传感网络部分\exp\zigbee\实验四  #
#                          无线自组网实验\Projects\zstack\Samples\SampleApp\C #
#                          C2530DB\..\..\..\..\..\COMPONENTS\SERVICES\SADDR\" #
#                           -I "C:\Documents and Settings\Administrator\My    #
#                          Documents\Dropbox\【光盘】物联网嵌入式平台II型―― #
#                          博创科技\物联网无线传感网络部分\exp\zigbee\实验四  #
#                          无线自组网实验\Projects\zstack\Samples\SampleApp\C #
#                          C2530DB\..\..\..\..\..\COMPONENTS\SERVICES\SDATA\" #
#                           -I "C:\Documents and Settings\Administrator\My    #
#                          Documents\Dropbox\【光盘】物联网嵌入式平台II型―― #
#                          博创科技\物联网无线传感网络部分\exp\zigbee\实验四  #
#                          无线自组网实验\Projects\zstack\Samples\SampleApp\C #
#                          C2530DB\..\..\..\..\..\COMPONENTS\MAC\INCLUDE\"    #
#                          -I "C:\Documents and Settings\Administrator\My     #
#                          Documents\Dropbox\【光盘】物联网嵌入式平台II型―― #
#                          博创科技\物联网无线传感网络部分\exp\zigbee\实验四  #
#                          无线自组网实验\Projects\zstack\Samples\SampleApp\C #
#                          C2530DB\..\..\..\..\..\COMPONENTS\MAC\HIGH_LEVEL\" #
#                           -I "C:\Documents and Settings\Administrator\My    #
#                          Documents\Dropbox\【光盘】物联网嵌入式平台II型―― #
#                          博创科技\物联网无线传感网络部分\exp\zigbee\实验四  #
#                          无线自组网实验\Projects\zstack\Samples\SampleApp\C #
#                          C2530DB\..\..\..\..\..\COMPONENTS\MAC\LOW_LEVEL\sr #
#                          f04\" -I "C:\Documents and                         #
#                          Settings\Administrator\My                          #
#                          Documents\Dropbox\【光盘】物联网嵌入式平台II型―― #
#                          博创科技\物联网无线传感网络部分\exp\zigbee\实验四  #
#                          无线自组网实验\Projects\zstack\Samples\SampleApp\C #
#                          C2530DB\..\..\..\..\..\COMPONENTS\MAC\LOW_LEVEL\sr #
#                          f04\SINGLE_CHIP\" -I "C:\Program Files\IAR         #
#                          Systems\Embedded Workbench 5.3 Evaluation          #
#                          version\8051\INC\" -I "C:\Program Files\IAR        #
#                          Systems\Embedded Workbench 5.3 Evaluation          #
#                          version\8051\INC\CLIB\" -Ohz                       #
#    List file          =  C:\Documents and Settings\Administrator\My         #
#                          Documents\Dropbox\【光盘】物联网嵌入式平台II型―― #
#                          博创科技\物联网无线传感网络部分\exp\zigbee\实验四  #
#                          无线自组网实验\Projects\zstack\Samples\SampleApp\C #
#                          C2530DB\CoordinatorEB\List\SampleApp.lst           #
#    Object file        =  C:\Documents and Settings\Administrator\My         #
#                          Documents\Dropbox\【光盘】物联网嵌入式平台II型―― #
#                          博创科技\物联网无线传感网络部分\exp\zigbee\实验四  #
#                          无线自组网实验\Projects\zstack\Samples\SampleApp\C #
#                          C2530DB\CoordinatorEB\Obj\SampleApp.r51            #
#                                                                             #
#                                                                             #
###############################################################################

C:\Documents and Settings\Administrator\My Documents\Dropbox\【光盘】物联网嵌入式平台II型――博创科技\物联网无线传感网络部分\exp\zigbee\实验四 无线自组网实验\Projects\zstack\Samples\SampleApp\Source\SampleApp.c
      1          /**************************************************************************************************
      2            Filename:       SampleApp.c
      3            Revised:        $Date: 2009-03-18 15:56:27 -0700 (Wed, 18 Mar 2009) $
      4            Revision:       $Revision: 19453 $
      5          
      6            Description:    Sample Application (no Profile).
      7          
      8          
      9            Copyright 2007 Texas Instruments Incorporated. All rights reserved.
     10          
     11            IMPORTANT: Your use of this Software is limited to those specific rights
     12            granted under the terms of a software license agreement between the user
     13            who downloaded the software, his/her employer (which must be your employer)
     14            and Texas Instruments Incorporated (the "License").  You may not use this
     15            Software unless you agree to abide by the terms of the License. The License
     16            limits your use, and you acknowledge, that the Software may not be modified,
     17            copied or distributed unless embedded on a Texas Instruments microcontroller
     18            or used solely and exclusively in conjunction with a Texas Instruments radio
     19            frequency transceiver, which is integrated into your product.  Other than for
     20            the foregoing purpose, you may not use, reproduce, copy, prepare derivative
     21            works of, modify, distribute, perform, display or sell this Software and/or
     22            its documentation for any purpose.
     23          
     24            YOU FURTHER ACKNOWLEDGE AND AGREE THAT THE SOFTWARE AND DOCUMENTATION ARE
     25            PROVIDED AS IS?WITHOUT WARRANTY OF ANY KIND, EITHER EXPRESS OR IMPLIED,
     26            INCLUDING WITHOUT LIMITATION, ANY WARRANTY OF MERCHANTABILITY, TITLE,
     27            NON-INFRINGEMENT AND FITNESS FOR A PARTICULAR PURPOSE. IN NO EVENT SHALL
     28            TEXAS INSTRUMENTS OR ITS LICENSORS BE LIABLE OR OBLIGATED UNDER CONTRACT,
     29            NEGLIGENCE, STRICT LIABILITY, CONTRIBUTION, BREACH OF WARRANTY, OR OTHER
     30            LEGAL EQUITABLE THEORY ANY DIRECT OR INDIRECT DAMAGES OR EXPENSES
     31            INCLUDING BUT NOT LIMITED TO ANY INCIDENTAL, SPECIAL, INDIRECT, PUNITIVE
     32            OR CONSEQUENTIAL DAMAGES, LOST PROFITS OR LOST DATA, COST OF PROCUREMENT
     33            OF SUBSTITUTE GOODS, TECHNOLOGY, SERVICES, OR ANY CLAIMS BY THIRD PARTIES
     34            (INCLUDING BUT NOT LIMITED TO ANY DEFENSE THEREOF), OR OTHER SIMILAR COSTS.
     35          
     36            Should you have any questions regarding your right to use this Software,
     37            contact Texas Instruments Incorporated at www.TI.com.
     38          **************************************************************************************************/
     39          
     40          /*********************************************************************
     41            This application isn't intended to do anything useful, it is
     42            intended to be a simple example of an application's structure.
     43          
     44            This application sends it's messages either as broadcast or
     45            broadcast filtered group messages.  The other (more normal)
     46            message addressing is unicast.  Most of the other sample
     47            applications are written to support the unicast message model.
     48          
     49            Key control:
     50              SW1:  Sends a flash command to all devices in Group 1.
     51              SW2:  Adds/Removes (toggles) this device in and out
     52                    of Group 1.  This will enable and disable the
     53                    reception of the flash command.
     54          *********************************************************************/
     55          
     56          /*********************************************************************
     57           * INCLUDES
     58           */
     59          #include <stdio.h>
     60          #include <string.h>
     61          #include "OSAL.h"
     62          #include "ZGlobals.h"
     63          #include "AF.h"
     64          #include "aps_groups.h"
     65          #include "ZDApp.h"
     66          #include "MT_UART.h"   //add by 1305106
     67          
     68          #include "SampleApp.h"
     69          #include "SampleAppHw.h"
     70          
     71          #include "OnBoard.h"
     72          
     73          /* HAL */
     74          #include "hal_lcd.h"
     75          #include "hal_led.h"
     76          #include "hal_key.h"
     77          
     78          /*********************************************************************
     79           * MACROS
     80           */
     81          
     82          /*********************************************************************
     83           * CONSTANTS
     84           */
     85          
     86          /*********************************************************************
     87           * TYPEDEFS
     88           */
     89          
     90          /*********************************************************************
     91           * GLOBAL VARIABLES
     92           */
     93          
     94          // This list should be filled with Application specific Cluster IDs.

   \                                 In  segment XDATA_ROM_C, align 1
     95          const cId_t SampleApp_ClusterList[SAMPLEAPP_MAX_CLUSTERS] =
   \                     SampleApp_ClusterList:
   \   000000   01000200     DW 1, 2
     96          {
     97            SAMPLEAPP_PERIODIC_CLUSTERID,
     98            SAMPLEAPP_FLASH_CLUSTERID,
     99          };
    100          
    101          // 简单设备描述符（描述一个zigbee设备节点）

   \                                 In  segment XDATA_ROM_C, align 1
    102          const SimpleDescriptionFormat_t SampleApp_SimpleDesc =
   \                     SampleApp_SimpleDesc:
   \   000000   14           DB 20
   \   000001   080F0100     DW 3848, 1
   \   000005   0002         DB 0, 2
   \   000007   ....         DW SampleApp_ClusterList
   \   000009   02           DB 2
   \   00000A   ....         DW SampleApp_ClusterList
    103          {
    104            SAMPLEAPP_ENDPOINT,              //  int Endpoint;
    105            SAMPLEAPP_PROFID,                //  uint16 AppProfId[2];
    106            SAMPLEAPP_DEVICEID,              //  uint16 AppDeviceId[2];
    107            SAMPLEAPP_DEVICE_VERSION,        //  int   AppDevVer:4;
    108            SAMPLEAPP_FLAGS,                 //  int   AppFlags:4;
    109            SAMPLEAPP_MAX_CLUSTERS,          //  uint8  AppNumInClusters;
    110            (cId_t *)SampleApp_ClusterList,  //  uint8 *pAppInClusterList;
    111            SAMPLEAPP_MAX_CLUSTERS,          //  uint8  AppNumInClusters;
    112            (cId_t *)SampleApp_ClusterList   //  uint8 *pAppInClusterList;
    113          };
    114          
    115          // This is the Endpoint/Interface description.  It is defined here, but
    116          // filled-in in SampleApp_Init().  Another way to go would be to fill
    117          // in the structure here and make it a "const" (in code space).  The
    118          // way it's defined in this sample app it is define in RAM.

   \                                 In  segment XDATA_Z, align 1, keep-with-next
    119          endPointDesc_t SampleApp_epDesc;      // 节点描述符
   \                     SampleApp_epDesc:
   \   000000                DS 6
   \   000006                REQUIRE __INIT_XDATA_Z
    120          
    121          /*********************************************************************
    122           * EXTERNAL VARIABLES
    123           */
    124          
    125          /*********************************************************************
    126           * EXTERNAL FUNCTIONS
    127           */
    128          
    129          /*********************************************************************
    130           * LOCAL VARIABLES
    131           */
    132          // 任务优先级

   \                                 In  segment XDATA_Z, align 1, keep-with-next
    133          uint8 SampleApp_TaskID;   // Task ID for internal task/event processing
   \                     SampleApp_TaskID:
   \   000000                DS 1
   \   000001                REQUIRE __INIT_XDATA_Z
    134                                    // This variable will be received when
    135                                    // SampleApp_Init() is called.

   \                                 In  segment XDATA_Z, align 1, keep-with-next
    136          devStates_t SampleApp_NwkState;
   \                     SampleApp_NwkState:
   \   000000                DS 1
   \   000001                REQUIRE __INIT_XDATA_Z
    137          
    138          // 数据发送序列号

   \                                 In  segment XDATA_Z, align 1, keep-with-next
    139          uint8 SampleApp_TransID;  // This is the unique message ID (counter)
   \                     SampleApp_TransID:
   \   000000                DS 1
   \   000001                REQUIRE __INIT_XDATA_Z
    140          

   \                                 In  segment XDATA_Z, align 1, keep-with-next
    141          afAddrType_t SampleApp_Periodic_DstAddr;
   \                     SampleApp_Periodic_DstAddr:
   \   000000                DS 12
   \   00000C                REQUIRE __INIT_XDATA_Z

   \                                 In  segment XDATA_Z, align 1, keep-with-next
    142          afAddrType_t SampleApp_Flash_DstAddr;
   \                     SampleApp_Flash_DstAddr:
   \   000000                DS 12
   \   00000C                REQUIRE __INIT_XDATA_Z
    143          

   \                                 In  segment XDATA_Z, align 1, keep-with-next
    144          aps_Group_t SampleApp_Group;
   \                     SampleApp_Group:
   \   000000                DS 18
   \   000012                REQUIRE __INIT_XDATA_Z
    145          

   \                                 In  segment XDATA_Z, align 1, keep-with-next
    146          uint8 SampleAppPeriodicCounter = 0;
   \                     SampleAppPeriodicCounter:
   \   000000                DS 1
   \   000001                REQUIRE __INIT_XDATA_Z

   \                                 In  segment XDATA_Z, align 1, keep-with-next
    147          uint8 SampleAppFlashCounter = 0;
   \                     SampleAppFlashCounter:
   \   000000                DS 1
   \   000001                REQUIRE __INIT_XDATA_Z
    148          
    149          /*********************************************************************
    150           * LOCAL FUNCTIONS
    151           */
    152          void SampleApp_HandleKeys( uint8 shift, uint8 keys );
    153          void SampleApp_MessageMSGCB( afIncomingMSGPacket_t *pckt );   // 消息处理函数
    154          void SampleApp_SendPeriodicMessage( void );     // 数据发送函数
    155          void SampleApp_SendFlashMessage( uint16 flashTime );
    156          
    157          /*********************************************************************
    158           * NETWORK LAYER CALLBACKS
    159           */
    160          
    161          /*********************************************************************
    162           * PUBLIC FUNCTIONS
    163           */
    164          
    165          /*********************************************************************
    166           * @fn      SampleApp_Init
    167           *
    168           * @brief   Initialization function for the Generic App Task.
    169           *          This is called during initialization and should contain
    170           *          any application specific initialization (ie. hardware
    171           *          initialization/setup, table initialization, power up
    172           *          notificaiton ... ).
    173           *
    174           * @param   task_id - the ID assigned by OSAL.  This ID should be
    175           *                    used to send messages and set timers.
    176           *
    177           * @return  none
    178           */

   \                                 In  segment BANKED_CODE, align 1, keep-with-next
    179          void SampleApp_Init( uint8 task_id )    // 任务初始化函数
   \                     SampleApp_Init:
    180          {
   \   000000   74F5         MOV     A,#-0xb
   \   000002   12....       LCALL   ?BANKED_ENTER_XDATA
   \   000005                ; Saved register size: 11
   \   000005                ; Auto size: 0
    181              // 初始化应用层的任务ID号，也就是任务优先级（任务优先级由协议栈的操作系统OSAL分配）
    182              SampleApp_TaskID = task_id; 
   \   000005   E9           MOV     A,R1
   \   000006   90....       MOV     DPTR,#SampleApp_TaskID
   \   000009   F0           MOVX    @DPTR,A
    183              
    184              // 初始化应用设备的网络状态为 ZDO层中定义的初始化值，即 not connected to anything
    185              // 在设备初始化的时候一定要把他初始化为 什么状态都没有 \
    186                 那么他就要去检测整个环境，看是否能重新建立或者加入存在的网络
    187              // DEV_INIT     Initialized - not connected to anything
    188              SampleApp_NwkState = DEV_INIT;
   \   00000A   7401         MOV     A,#0x1
   \   00000C   90....       MOV     DPTR,#SampleApp_NwkState
   \   00000F   F0           MOVX    @DPTR,A
    189              
    190              // 发送数据包的序号初始化为0
    191              SampleApp_TransID = 0;        
   \   000010   E4           CLR     A
   \   000011   90....       MOV     DPTR,#SampleApp_TransID
   \   000014   F0           MOVX    @DPTR,A
    192            
    193              // Device hardware initialization can be added here or in main() (Zmain.c).
    194              // If the hardware is application specific - add it here.
    195              // If the hardware is other parts of the device add it in main().
    196              // 关于硬件初始化在哪添加的问题
    197              // 如果硬件是特殊用途，需要在此添加
    198              // 如果是其他的硬件初始化，就在主函数中添加
    199              
    200              
    201             #if defined ( BUILD_ALL_DEVICES )
    202              // The "Demo" target is setup to have BUILD_ALL_DEVICES and HOLD_AUTO_START
    203              // We are looking at a jumper (defined in SampleAppHw.c) to be jumpered
    204              // together - if they are - we will start up a coordinator. Otherwise,
    205              // the device will start as a router.
    206              // 为了在形成网络过程中节省所需的设备，所有的路由设备可以通过 jump定义作为一个协调器。
    207              if ( readCoordinatorJumper() )
    208                zgDeviceLogicalType = ZG_DEVICETYPE_COORDINATOR;
    209              else
    210                zgDeviceLogicalType = ZG_DEVICETYPE_ROUTER;
    211            #endif // BUILD_ALL_DEVICES
    212            
    213            #if defined ( HOLD_AUTO_START )
    214              // HOLD_AUTO_START is a compile option that will surpress(抑制) ZDApp
    215              //  from starting the device and wait for the application to
    216              //  start the device.
    217              // 如果定义了HOLD_AUTO_START选项，则调用层的ZDOInitDevice，按照默认顺序 \
    218                网络中的第一个设备作为协调器，其他的设备作为子设备
    219              ZDOInitDevice(0);
    220            #endif
    221          
    222          /**********************设置发送数据的方式和目的地址寻址方式***********************/    
    223              // Setup for the periodic message's destination address
    224              // Broadcast to everyone
    225              // 周期消息，广播发送
    226              // 为周期性发送消息设置目的地址，广播给每一个节点设备
    227              SampleApp_Periodic_DstAddr.addrMode = (afAddrMode_t)AddrBroadcast;    // 发送模式(广播)
   \   000015   740F         MOV     A,#0xf
   \   000017   90....       MOV     DPTR,#(SampleApp_Periodic_DstAddr + 8)
   \   00001A   F0           MOVX    @DPTR,A
    228              SampleApp_Periodic_DstAddr.endPoint = SAMPLEAPP_ENDPOINT;     // 指定端点号 20
   \   00001B   7414         MOV     A,#0x14
   \   00001D   90....       MOV     DPTR,#(SampleApp_Periodic_DstAddr + 9)
   \   000020   F0           MOVX    @DPTR,A
    229              SampleApp_Periodic_DstAddr.addr.shortAddr = 0xFFFF;   // 指定目的网络地址为广播地址
   \   000021   90....       MOV     DPTR,#SampleApp_Periodic_DstAddr
   \   000024   74FF         MOV     A,#-0x1
   \   000026   F0           MOVX    @DPTR,A
   \   000027   A3           INC     DPTR
   \   000028   F0           MOVX    @DPTR,A
    230            
    231              // Setup for the flash command's destination address - Group 1
    232              // 闪烁消息，发送到组
    233              // 为 group1中的 flash发送命令设置目的地址
    234              SampleApp_Flash_DstAddr.addrMode = (afAddrMode_t)afAddrGroup;   // 发送模式(组寻址)
   \   000029   7401         MOV     A,#0x1
   \   00002B   90....       MOV     DPTR,#(SampleApp_Flash_DstAddr + 8)
   \   00002E   F0           MOVX    @DPTR,A
    235              SampleApp_Flash_DstAddr.endPoint = SAMPLEAPP_ENDPOINT;    // 指定端点号 20
   \   00002F   7414         MOV     A,#0x14
   \   000031   90....       MOV     DPTR,#(SampleApp_Flash_DstAddr + 9)
   \   000034   F0           MOVX    @DPTR,A
    236              // 在 sampleApp.h中已经定义了 #define SAMPLEAPP_FLASH_GROUP   0x0001
    237              SampleApp_Flash_DstAddr.addr.shortAddr = SAMPLEAPP_FLASH_GROUP;   // 组号 0x0001
   \   000035   90....       MOV     DPTR,#SampleApp_Flash_DstAddr
   \   000038   7401         MOV     A,#0x1
   \   00003A   F0           MOVX    @DPTR,A
   \   00003B   A3           INC     DPTR
   \   00003C   E4           CLR     A
   \   00003D   F0           MOVX    @DPTR,A
    238          /*******************************************END*******************************************/
    239          
    240          /*****************************初始化终端节点描述符****************************************/
    241              // Fill out the endpoint description.(endpoint 简称EP)
    242              // 对终端节点描述符进行初始化
    243              // 定义本设备用来通信的 APS层端点描述符
    244              SampleApp_epDesc.endPoint = SAMPLEAPP_ENDPOINT;     // EP描述符的EP号
   \   00003E   7414         MOV     A,#0x14
   \   000040   90....       MOV     DPTR,#SampleApp_epDesc
   \   000043   F0           MOVX    @DPTR,A
    245              SampleApp_epDesc.task_id = &SampleApp_TaskID;       // EP描述符的任务ID号
   \   000044   90....       MOV     DPTR,#(SampleApp_epDesc + 1)
   \   000047   74..         MOV     A,#(SampleApp_TaskID & 0xff)
   \   000049   F0           MOVX    @DPTR,A
   \   00004A   A3           INC     DPTR
   \   00004B   74..         MOV     A,#((SampleApp_TaskID >> 8) & 0xff)
   \   00004D   F0           MOVX    @DPTR,A
    246              // sampleApp EP简单描述符
    247              SampleApp_epDesc.simpleDesc
    248                        = (SimpleDescriptionFormat_t *)&SampleApp_SimpleDesc;
   \   00004E   90....       MOV     DPTR,#(SampleApp_epDesc + 3)
   \   000051   74..         MOV     A,#(SampleApp_SimpleDesc & 0xff)
   \   000053   F0           MOVX    @DPTR,A
   \   000054   A3           INC     DPTR
   \   000055   74..         MOV     A,#((SampleApp_SimpleDesc >> 8) & 0xff)
   \   000057   F0           MOVX    @DPTR,A
    249              // 终端节点描述符等待请求，也就是延时策略
    250              SampleApp_epDesc.latencyReq = noLatencyReqs;
   \   000058   E4           CLR     A
   \   000059   90....       MOV     DPTR,#(SampleApp_epDesc + 5)
   \   00005C   F0           MOVX    @DPTR,A
    251          /**************************************END************************************************/
    252              
    253              // Register the endpoint description with the AF
    254              // 向AF层登记注册 EP描述符。登记后，才能使用OSAL提供的系统服务。
    255              /*
    256                  AF层登记相应应用对象，要对该应用进行初始化并在 AF进行登记，告诉应用层有这么一个 
    257              EP已经可以使用，那么下层要是有关于该应用的信息或者应用要对下层做哪些操作，就自动得
    258              到下层的配合。其实在这个应用中，只是让 AF配合 SAMPLEAPP_PROFID / SAMPLEAPP_ENDPOINT
    259              这两个应用。那么通过什么呢，通过发送 OSAL SYS_EVENT_MSG消息中的（AF_INCOMING_CMD）
    260              事件到 SampleApp 任务 ID。
    261              */
    262              afRegister( &SampleApp_epDesc );
   \   00005D                ; Setup parameters for call to function afRegister
   \   00005D   7A..         MOV     R2,#(SampleApp_epDesc & 0xff)
   \   00005F   7B..         MOV     R3,#((SampleApp_epDesc >> 8) & 0xff)
   \   000061   12....       LCALL   ??afRegister?relay
    263            
    264              // Register for all key events - This app will handle all key events
    265              // 登记注册可用的 OSAL或 HAL系统服务。
    266              // 另一种说法：登记注册所有的按键事件
    267              RegisterForKeys( SampleApp_TaskID );
   \   000064                ; Setup parameters for call to function RegisterForKeys
   \   000064   90....       MOV     DPTR,#SampleApp_TaskID
   \   000067   E0           MOVX    A,@DPTR
   \   000068   F9           MOV     R1,A
   \   000069   12....       LCALL   ??RegisterForKeys?relay
    268              MT_UartRegisterTaskID( SampleApp_TaskID ); //add by 1305106
   \   00006C                ; Setup parameters for call to function MT_UartRegisterTaskID
   \   00006C   90....       MOV     DPTR,#SampleApp_TaskID
   \   00006F   E0           MOVX    A,@DPTR
   \   000070   F9           MOV     R1,A
   \   000071   12....       LCALL   ??MT_UartRegisterTaskID?relay
    269          
    270          /**************************************设立一个新组***************************************************/    
    271              // By default, all devices start out in Group 1
    272              // 设立一个新组group 1，默认情况下，所有设备都在 Group 1中开始
    273              SampleApp_Group.ID = 0x0001;        // 设定组号
   \   000074   90....       MOV     DPTR,#SampleApp_Group
   \   000077   7401         MOV     A,#0x1
   \   000079   F0           MOVX    @DPTR,A
   \   00007A   A3           INC     DPTR
   \   00007B   E4           CLR     A
   \   00007C   F0           MOVX    @DPTR,A
    274              
    275              /**************memcpy 函数*****************************************
    276              原型：extern void *memcpy( void *dst, void *src, unsigned int count )
    277              用法：#include <string.h>
    278              功能：由 src所指内存区域复制 count个字节到 dest所指内存区域
    279              说明：src 和 dest 所指内存区域不能重叠，函数返回指向 dest 指针
    280              */
    281              // Flash信息被发送到 group1,同样也只有在 group1的设备才能接收到这个信息，\
    282                设备启动时已经被设定为 group 1设备了，但是可以通过按 SW1退出/加入 group1
    283              osal_memcpy( SampleApp_Group.name, "Group 1", 7  );       // 设定组名
   \   00007D                ; Setup parameters for call to function osal_memcpy
   \   00007D   75....       MOV     ?V0 + 0,#(`?<Constant "Group 1">` & 0xff)
   \   000080   75....       MOV     ?V0 + 1,#((`?<Constant "Group 1">` >> 8) & 0xff)
   \   000083   F5..         MOV     ?V0 + 2,A
   \   000085   78..         MOV     R0,#?V0 + 0
   \   000087   12....       LCALL   ?PUSH_XSTACK_I_THREE
   \   00008A   7C07         MOV     R4,#0x7
   \   00008C   7D00         MOV     R5,#0x0
   \   00008E   7A..         MOV     R2,#((SampleApp_Group + 2) & 0xff)
   \   000090   7B..         MOV     R3,#(((SampleApp_Group + 2) >> 8) & 0xff)
   \   000092   12....       LCALL   ??osal_memcpy?relay
   \   000095   7403         MOV     A,#0x3
   \   000097   12....       LCALL   ?DEALLOC_XSTACK8
    284              aps_AddGroup( SAMPLEAPP_ENDPOINT, &SampleApp_Group );     // 把该组登记添加到APS中
   \   00009A                ; Setup parameters for call to function aps_AddGroup
   \   00009A   7A..         MOV     R2,#(SampleApp_Group & 0xff)
   \   00009C   7B..         MOV     R3,#((SampleApp_Group >> 8) & 0xff)
   \   00009E   7914         MOV     R1,#0x14
   \   0000A0   12....       LCALL   ??aps_AddGroup?relay
    285          /**********************************************END********************************************************/
    286              
    287              // 如果支持LCD，显示一串字符
    288            #if defined ( LCD_SUPPORTED )
    289              HalLcdWriteString( "SampleApp", HAL_LCD_LINE_1 );
    290            #endif
    291          }
   \   0000A3   7F03         MOV     R7,#0x3
   \   0000A5   02....       LJMP    ?BANKED_LEAVE_XDATA
    292          
    293          /*********************************************************************
    294           * @fn      SampleApp_ProcessEvent
    295           *
    296           * @brief   Generic Application Task event processor.  This function
    297           *          is called to process all events for the task.  Events
    298           *          include timers, messages and any other user defined events.
    299           *         
    300           *          一般请求任务事件处理器，这个函数调用处理所有事件任务。事件包括时间、
    301           *          信息和所有其他使用者定义的事件。
    302           *          这个任务中一共存在 按键时间、接收数据和设备状态转换 3个事件。按键时间
    303           *          通过键盘实现相应的操作，接收数据事件是完成一次数据接收后对数据的处理。
    304           *
    305           * @param   task_id  - The OSAL assigned task ID.     操作系统分配的任务ID
    306           * @param   events - events to process.  This is a bit map and can    
    307           *                   contain more than one event.    事件的处理
    308           *
    309           * @return  none
    310           */
    311          // 在 ZStack中，每个应用任务都通过 SampleApp_ProcessEvent() 函数来处理任务中的事件。 \
    312            一旦 SampleApp_TaskID任务的某个 OSAL事件发生，那么就可以通过调用 SampleApp_ProcessEvent() \
    313             函数来处理。在 SampleApp_ProcessEvent()中有一个事件处理循环，循环检测是哪个事件发生。\
    314               本例程中调用 uint16 SampleApp_ProcessEvent( uint8 task_id, uint16 events )函数处理任务事件， \
    315                 除了强制事件（一个任务事件 SYS_EVENT_MSG(0X8000),被保留必须通过 OSAL任务设计）之外， \
    316                   任何一个 OSAL任务能被定义多达15个任务事件。

   \                                 In  segment BANKED_CODE, align 1, keep-with-next
    317          uint16 SampleApp_ProcessEvent( uint8 task_id, uint16 events )   // 任务处理函数
   \                     SampleApp_ProcessEvent:
    318          {
   \   000000   74F4         MOV     A,#-0xc
   \   000002   12....       LCALL   ?BANKED_ENTER_XDATA
   \   000005                ; Saved register size: 12
   \   000005                ; Auto size: 0
   \   000005   EA           MOV     A,R2
   \   000006   FE           MOV     R6,A
   \   000007   EB           MOV     A,R3
   \   000008   FF           MOV     R7,A
    319              // MSGpkt用于指向接收消息结构体的指针 
    320              afIncomingMSGPacket_t *MSGpkt;
    321              (void)task_id;  // Intentionally unreferenced parameter
    322              
    323              if ( events & SYS_EVENT_MSG )
   \   000009   7480         MOV     A,#-0x80
   \   00000B   5F           ANL     A,R7
   \   00000C   F9           MOV     R1,A
   \   00000D   E4           CLR     A
   \   00000E   7001         JNZ     ??SampleApp_ProcessEvent_0
   \   000010   E9           MOV     A,R1
   \                     ??SampleApp_ProcessEvent_0:
   \   000011   7003         JNZ     $+5
   \   000013   02....       LJMP    ??SampleApp_ProcessEvent_1 & 0xFFFF
    324              {
    325                  // osal_msg_receive（）从消息队列上接收消息  
    326                  MSGpkt = (afIncomingMSGPacket_t *)osal_msg_receive( SampleApp_TaskID );
   \   000016                ; Setup parameters for call to function osal_msg_receive
   \   000016   8038         SJMP    ??SampleApp_ProcessEvent_2
    327                  while ( MSGpkt )
    328                  {
    329                      switch ( MSGpkt->hdr.event )
    330                      {
    331                        // 按键触发事件。
    332                        // 判断是否是按键事件，如果键盘事件就调用键盘处理函数，关于按键子程序在本文中 \
    333                          不再展开论述，因为其比较简单，就是通过按键实现了两个功能：通过按键触发实现 \
    334                            flash 发送模式通过按键实现加入或退出 group1
    335                        // Received when a key is pressed
    336                        case KEY_CHANGE:
    337                          SampleApp_HandleKeys( ((keyChange_t *)MSGpkt)->state, ((keyChange_t *)MSGpkt)->keys );
    338                          break;
    339                
    340                        // 接收数据事件。
    341                        // 接受到新数据的消息的ID是AF_INCOMING_MSG_CMD,这个宏是在协议栈中定义好的值为0x1A  
    342                        // 接受到的是无线数据包  
    343                        // Received when a messages is received (OTA) for this endpoint
    344                        case AF_INCOMING_MSG_CMD:
    345                          // 功能是完成对接受数据的处理 
    346                          SampleApp_MessageMSGCB( MSGpkt );
    347                          break;;
    348                
    349                        // 设备状态变化事件。
    350                        // 只要网络状态发生改变，那么通过 ZDO_STATE_CHANGE事件通知所有的任务。 \
    351                            注意：在这个例子中，一旦设备成功加入网络，是通过定时运行的方式运行的。\
    352                            一旦网络状态为加入“JOINED”，那么他可能不需要任何的认证操作就能绑定 \
    353                            其他设备，因为设置为自动发现并绑定的。
    354                        // Received whenever the device changes state in the network
    355                        case ZDO_STATE_CHANGE:
    356                          SampleApp_NwkState = (devStates_t)(MSGpkt->hdr.status);
   \                     ??SampleApp_ProcessEvent_3:
   \   000018   85..82       MOV     DPL,?V0 + 0
   \   00001B   85..83       MOV     DPH,?V0 + 1
   \   00001E   A3           INC     DPTR
   \   00001F   E0           MOVX    A,@DPTR
   \   000020   90....       MOV     DPTR,#SampleApp_NwkState
   \   000023   F0           MOVX    @DPTR,A
    357                          if ( (SampleApp_NwkState == DEV_ZB_COORD)
    358                              || (SampleApp_NwkState == DEV_ROUTER)
    359                              || (SampleApp_NwkState == DEV_END_DEVICE) )
   \   000024   6409         XRL     A,#0x9
   \   000026   600A         JZ      ??SampleApp_ProcessEvent_4
   \   000028   E0           MOVX    A,@DPTR
   \   000029   6407         XRL     A,#0x7
   \   00002B   6005         JZ      ??SampleApp_ProcessEvent_4
   \   00002D   E0           MOVX    A,@DPTR
   \   00002E   6406         XRL     A,#0x6
   \   000030   7017         JNZ     ??SampleApp_ProcessEvent_5
    360                          {
    361                            // 在一个时间间隔中周期性发送一个数据。
    362                            // 可以看到网络状态一旦改变（建立或加入网络），\
    363                                就调用了定时触发事件 SAMPLEAPP_SEND_PERIODIC_MSG_EVT
    364                            // Start sending the periodic message in a regular interval.
    365                            HalLedSet(HAL_LED_1, HAL_LED_MODE_ON);
   \                     ??SampleApp_ProcessEvent_4:
   \   000032                ; Setup parameters for call to function HalLedSet
   \   000032   7A01         MOV     R2,#0x1
   \   000034   7901         MOV     R1,#0x1
   \   000036   12....       LCALL   ??HalLedSet?relay
    366                            osal_start_timerEx( SampleApp_TaskID,
    367                                              SAMPLEAPP_SEND_PERIODIC_MSG_EVT,
    368                                              SAMPLEAPP_SEND_PERIODIC_MSG_TIMEOUT );
   \   000039                ; Setup parameters for call to function osal_start_timerEx
   \   000039   7C88         MOV     R4,#-0x78
   \   00003B   7D13         MOV     R5,#0x13
   \   00003D   7A01         MOV     R2,#0x1
   \   00003F   7B00         MOV     R3,#0x0
   \   000041   90....       MOV     DPTR,#SampleApp_TaskID
   \   000044   E0           MOVX    A,@DPTR
   \   000045   F9           MOV     R1,A
   \   000046   12....       LCALL   ??osal_start_timerEx?relay
    369                          }
    370                          else
    371                          {
    372                            // Device is no longer in the network
    373                          }
    374                          break;
    375                
    376                        default:
    377                          break;
    378                    }
    379                    // 接收到的消息处理完后，释放消息所占的存储空间 
    380                    osal_msg_deallocate( (uint8 *)MSGpkt );    // Release the memory
   \                     ??SampleApp_ProcessEvent_5:
   \   000049                ; Setup parameters for call to function osal_msg_deallocate
   \   000049   AA..         MOV     R2,?V0 + 0
   \   00004B   AB..         MOV     R3,?V0 + 1
   \   00004D   12....       LCALL   ??osal_msg_deallocate?relay
    381                    // 处理完一个消息后，再从消息队列里接受消息，然后对其进行相应处理，直到所有消息处理完
    382                    // Next - if one is available
    383                    MSGpkt = (afIncomingMSGPacket_t *)osal_msg_receive( SampleApp_TaskID );   
   \   000050                ; Setup parameters for call to function osal_msg_receive
   \                     ??SampleApp_ProcessEvent_2:
   \   000050   90....       MOV     DPTR,#SampleApp_TaskID
   \   000053   E0           MOVX    A,@DPTR
   \   000054   F9           MOV     R1,A
   \   000055   12....       LCALL   ??osal_msg_receive?relay
   \   000058   8A..         MOV     ?V0 + 0,R2
   \   00005A   8B..         MOV     ?V0 + 1,R3
   \   00005C   E5..         MOV     A,?V0 + 0
   \   00005E   7002         JNZ     ??SampleApp_ProcessEvent_6
   \   000060   E5..         MOV     A,?V0 + 1
   \                     ??SampleApp_ProcessEvent_6:
   \   000062   603A         JZ      ??SampleApp_ProcessEvent_7
   \   000064   85..82       MOV     DPL,?V0 + 0
   \   000067   85..83       MOV     DPH,?V0 + 1
   \   00006A   E0           MOVX    A,@DPTR
   \   00006B   12....       LCALL   ?UC_SWITCH_SPARSE
   \                     `?<Jumptable for SampleApp_ProcessEvent>_0`:
   \   00006E   00           DB        0
   \   00006F   03           DB        3
   \   000070   1A           DB        26
   \   000071   ....         DW        ??SampleApp_ProcessEvent_8
   \   000073   C0           DB        192
   \   000074   ....         DW        ??SampleApp_ProcessEvent_9
   \   000076   D1           DB        209
   \   000077   ....         DW        ??SampleApp_ProcessEvent_3
   \   000079   ....         DW        ??SampleApp_ProcessEvent_5
   \                     ??SampleApp_ProcessEvent_9:
   \   00007B                ; Setup parameters for call to function SampleApp_HandleKeys
   \   00007B   85..82       MOV     DPL,?V0 + 0
   \   00007E   85..83       MOV     DPH,?V0 + 1
   \   000081   A3           INC     DPTR
   \   000082   A3           INC     DPTR
   \   000083   A3           INC     DPTR
   \   000084   E0           MOVX    A,@DPTR
   \   000085   FA           MOV     R2,A
   \   000086   85..82       MOV     DPL,?V0 + 0
   \   000089   85..83       MOV     DPH,?V0 + 1
   \   00008C   A3           INC     DPTR
   \   00008D   A3           INC     DPTR
   \   00008E   E0           MOVX    A,@DPTR
   \   00008F   F9           MOV     R1,A
   \   000090   12....       LCALL   ??SampleApp_HandleKeys?relay
   \   000093   80B4         SJMP    ??SampleApp_ProcessEvent_5
   \                     ??SampleApp_ProcessEvent_8:
   \   000095                ; Setup parameters for call to function SampleApp_MessageMSGCB
   \   000095   AA..         MOV     R2,?V0 + 0
   \   000097   AB..         MOV     R3,?V0 + 1
   \   000099   12....       LCALL   ??SampleApp_MessageMSGCB?relay
   \   00009C   80AB         SJMP    ??SampleApp_ProcessEvent_5
    384                }
    385                
    386                // 返回没有处理的事件
    387                return (events ^ SYS_EVENT_MSG);    // return unprocessed events
   \                     ??SampleApp_ProcessEvent_7:
   \   00009E   EE           MOV     A,R6
   \   00009F   FA           MOV     R2,A
   \   0000A0   7480         MOV     A,#-0x80
   \   0000A2   6F           XRL     A,R7
   \                     ??SampleApp_ProcessEvent_10:
   \   0000A3   FB           MOV     R3,A
   \   0000A4   802F         SJMP    ??SampleApp_ProcessEvent_11
    388              }
    389            
    390              // 发送一个数据出去，这个任务是产生一个时间，通俗一点就是通过该函数实现周期性定时的功能，\
    391                这里调用了发送数据函数 SampleApp_SendPeriodicMessage()，而之后又调用了定时触发事件 \
    392                SAMPLEAPP_SEND_PERIODIC_MSG_EVT，所以该事件不停的在触发并发送数据。
    393              // Send a message out - This event is generated by a timer
    394              //  (setup in SampleApp_Init()).
    395              if ( events & SAMPLEAPP_SEND_PERIODIC_MSG_EVT )
   \                     ??SampleApp_ProcessEvent_1:
   \   0000A6   EE           MOV     A,R6
   \   0000A7   A2E0         MOV     C,0xE0 /* A   */.0
   \   0000A9   5026         JNC     ??SampleApp_ProcessEvent_12
    396              {
    397                SampleApp_SendPeriodicMessage();   // Send the periodic message  发送一个周期性信息
   \   0000AB                ; Setup parameters for call to function SampleApp_SendPeriodicMessage
   \   0000AB   12....       LCALL   ??SampleApp_SendPeriodicMessage?relay
    398                // Setup to send message again in normal period (+ a little jitter)
    399                osal_start_timerEx( SampleApp_TaskID, SAMPLEAPP_SEND_PERIODIC_MSG_EVT,
    400                    (SAMPLEAPP_SEND_PERIODIC_MSG_TIMEOUT + (osal_rand() & 0x00FF)) ); 
   \   0000AE                ; Setup parameters for call to function osal_rand
   \   0000AE   12....       LCALL   ??osal_rand?relay
   \   0000B1   8A..         MOV     ?V0 + 0,R2
   \   0000B3   A8..         MOV     R0,?V0 + 0
   \   0000B5                ; Setup parameters for call to function osal_start_timerEx
   \   0000B5   7488         MOV     A,#-0x78
   \   0000B7   28           ADD     A,R0
   \   0000B8   FC           MOV     R4,A
   \   0000B9   7413         MOV     A,#0x13
   \   0000BB   3400         ADDC    A,#0x0
   \   0000BD   FD           MOV     R5,A
   \   0000BE   7A01         MOV     R2,#0x1
   \   0000C0   7B00         MOV     R3,#0x0
   \   0000C2   90....       MOV     DPTR,#SampleApp_TaskID
   \   0000C5   E0           MOVX    A,@DPTR
   \   0000C6   F9           MOV     R1,A
   \   0000C7   12....       LCALL   ??osal_start_timerEx?relay
    401                // return unprocessed events  ^代表取反的意思
    402                return (events ^ SAMPLEAPP_SEND_PERIODIC_MSG_EVT);     
   \   0000CA   7401         MOV     A,#0x1
   \   0000CC   6E           XRL     A,R6
   \   0000CD   FA           MOV     R2,A
   \   0000CE   EF           MOV     A,R7
   \   0000CF   80D2         SJMP    ??SampleApp_ProcessEvent_10
    403              }
    404           
    405              /*
    406                 这里检测事件是否为周期发送信息事件。因为在 SampleApp.h中定义了：#define 
    407              SAMPLEAPP_SEND_PERIODIC_MSG_EVT   0x0001 在这个应用中，调用了 osal_start_timerEx()
    408              函数来定时产生发送周期信息事件。而定时器的运行是设备一旦加入网络就不停地运行。
    409                 从上面可以看到，用函数 SampleApp_SendPeriodicMessage()发送周期信息，而用函数 
    410              osal_start_timerEx( SampleApp_TaskID,
    411                                              SAMPLEAPP_SEND_PERIODIC_MSG_EVT,
    412                                              SAMPLEAPP_SEND_PERIODIC_MSG_TIMEOUT );
    413              来继续运行定时器定时发送这个周期信息。关于这个 osal_start_timerEx()的具体参数如下，
    414              第一个参数是任务的ID；第二个参数是说明事件到了，产生一个什么事件；第三个参数是需要定时
    415              的时间，这里就是发送周期信息的时间周期。
    416              */
    417              
    418              // 丢掉没有定义的事件
    419              // Discard unknown events
    420              return 0;   
   \                     ??SampleApp_ProcessEvent_12:
   \   0000D1   7A00         MOV     R2,#0x0
   \   0000D3   7B00         MOV     R3,#0x0
   \                     ??SampleApp_ProcessEvent_11:
   \   0000D5   7F04         MOV     R7,#0x4
   \   0000D7   02....       LJMP    ?BANKED_LEAVE_XDATA
    421          }
    422          
    423          /*********************************************************************
    424           * Event Generation Functions
    425           */
    426          /*********************************************************************
    427           * @fn      SampleApp_HandleKeys
    428           *
    429           * @brief   Handles all key events for this device.
    430           *
    431           * @param   shift - true if in shift/alt.
    432           * @param   keys - bit field for key events. Valid entries:
    433           *                 HAL_KEY_SW_2
    434           *                 HAL_KEY_SW_1
    435           *
    436           * @return  none
    437           */

   \                                 In  segment BANKED_CODE, align 1, keep-with-next
    438          void SampleApp_HandleKeys( uint8 shift, uint8 keys )
   \                     SampleApp_HandleKeys:
    439          {
   \   000000   74F6         MOV     A,#-0xa
   \   000002   12....       LCALL   ?BANKED_ENTER_XDATA
   \   000005                ; Saved register size: 10
   \   000005                ; Auto size: 0
   \   000005   EA           MOV     A,R2
   \   000006   FE           MOV     R6,A
    440              (void)shift;  // Intentionally unreferenced parameter
    441              
    442              if ( keys & HAL_KEY_SW_6 ) 
   \   000007   A2E5         MOV     C,0xE0 /* A   */.5
   \   000009   5007         JNC     ??SampleApp_HandleKeys_0
    443              {
    444                /* This key sends the Flash Command is sent to Group 1.
    445                 * This device will not receive the Flash Command from this
    446                 * device (even if it belongs to group 1).
    447                 */
    448                SampleApp_SendFlashMessage( SAMPLEAPP_FLASH_DURATION );
   \   00000B                ; Setup parameters for call to function SampleApp_SendFlashMessage
   \   00000B   7AE8         MOV     R2,#-0x18
   \   00000D   7B03         MOV     R3,#0x3
   \   00000F   12....       LCALL   ??SampleApp_SendFlashMessage?relay
    449              }
    450            
    451              if ( keys & HAL_KEY_SW_2 )
   \                     ??SampleApp_HandleKeys_0:
   \   000012   EE           MOV     A,R6
   \   000013   A2E1         MOV     C,0xE0 /* A   */.1
   \   000015   5023         JNC     ??SampleApp_HandleKeys_1
    452              {
    453                  /* The Flashr Command is sent to Group 1.
    454                   * This key toggles this device in and out of group 1.
    455                   * If this device doesn't belong to group 1, this application
    456                   * will not receive the Flash command sent to group 1.
    457                   */
    458                  aps_Group_t *grp;
    459                  grp = aps_FindGroup( SAMPLEAPP_ENDPOINT, SAMPLEAPP_FLASH_GROUP );
    460                  if ( grp )
   \   000017                ; Setup parameters for call to function aps_FindGroup
   \   000017   7A01         MOV     R2,#0x1
   \   000019   7B00         MOV     R3,#0x0
   \   00001B   7914         MOV     R1,#0x14
   \   00001D   12....       LCALL   ??aps_FindGroup?relay
   \   000020   EA           MOV     A,R2
   \   000021   7001         JNZ     ??SampleApp_HandleKeys_2
   \   000023   EB           MOV     A,R3
   \                     ??SampleApp_HandleKeys_2:
   \   000024   600B         JZ      ??SampleApp_HandleKeys_3
    461                  {
    462                    // Remove from the group
    463                    aps_RemoveGroup( SAMPLEAPP_ENDPOINT, SAMPLEAPP_FLASH_GROUP );
   \   000026                ; Setup parameters for call to function aps_RemoveGroup
   \   000026   7A01         MOV     R2,#0x1
   \   000028   7B00         MOV     R3,#0x0
   \   00002A   7914         MOV     R1,#0x14
   \   00002C   12....       LCALL   ??aps_RemoveGroup?relay
   \   00002F   8009         SJMP    ??SampleApp_HandleKeys_1
    464                  }
    465                  else
    466                  {
    467                    // Add to the flash group
    468                    aps_AddGroup( SAMPLEAPP_ENDPOINT, &SampleApp_Group );
   \                     ??SampleApp_HandleKeys_3:
   \   000031                ; Setup parameters for call to function aps_AddGroup
   \   000031   7A..         MOV     R2,#(SampleApp_Group & 0xff)
   \   000033   7B..         MOV     R3,#((SampleApp_Group >> 8) & 0xff)
   \   000035   7914         MOV     R1,#0x14
   \   000037   12....       LCALL   ??aps_AddGroup?relay
    469                  }
    470              }
    471          }
   \                     ??SampleApp_HandleKeys_1:
   \   00003A   80..         SJMP    ??Subroutine2_0

   \                                 In  segment BANKED_CODE, align 1, keep-with-next
   \                     ??Subroutine2_0:
   \   000000   7F02         MOV     R7,#0x2
   \   000002   02....       LJMP    ?BANKED_LEAVE_XDATA
    472          
    473          /*********************************************************************
    474           * LOCAL FUNCTIONS
    475           */
    476          
    477          /*********************************************************************
    478           * @fn      SampleApp_MessageMSGCB
    479           *          信息的接收（适用与两种发送模式）
    480           *
    481           * @brief   Data message processor callback.  This function processes
    482           *          any incoming data - probably from other devices.  So, based
    483           *          on cluster ID, perform the intended action.
    484           *        
    485           * @param   none
    486           *
    487           * @return  none
    488           */
    489          /*
    490              接收数据就是发送的过程，那么接收之后，在应用层有什么反应呢？最直观的反应就是会发送一个
    491          AF_INCOMING_MSG_CMD消息事件。表示收到某个信息，然后在里面调用了收到信息的信息处理函数。
    492          具体函数如下所示：
    493          */

   \                                 In  segment BANKED_CODE, align 1, keep-with-next
    494          void SampleApp_MessageMSGCB( afIncomingMSGPacket_t *pkt )
   \                     SampleApp_MessageMSGCB:
    495          {
   \   000000   74F6         MOV     A,#-0xa
   \   000002   12....       LCALL   ?BANKED_ENTER_XDATA
   \   000005                ; Saved register size: 10
   \   000005                ; Auto size: 0
    496              uint16 flashTime;
    497              unsigned char *buf;
    498              
    499              // 判断簇ID，因为前面已经对两种发送模式定义不同的簇ID，以此来区分收到的消息是通过 \
    500                哪种发送模式发来的，针对不同的消息就相当于收到了不同的命令，然后根据不同的命令 \
    501                做出不同的处理。
    502              switch ( pkt->clusterId )
   \   000005   8A82         MOV     DPL,R2
   \   000007   8B83         MOV     DPH,R3
   \   000009   A3           INC     DPTR
   \   00000A   A3           INC     DPTR
   \   00000B   A3           INC     DPTR
   \   00000C   A3           INC     DPTR
   \   00000D   E0           MOVX    A,@DPTR
   \   00000E   F5..         MOV     ?V0 + 0,A
   \   000010   A3           INC     DPTR
   \   000011   E0           MOVX    A,@DPTR
   \   000012   F5..         MOV     ?V0 + 1,A
   \   000014   78..         MOV     R0,#?V0 + 0
   \   000016   12....       LCALL   ?US_SWITCH_DENSE
   \                     `?<Jumptable for SampleApp_MessageMSGCB>_0`:
   \   000019   0100         DW        1
   \   00001B   01           DB        1
   \   00001C   ....         DW        ??SampleApp_MessageMSGCB_0
   \   00001E   ....         DW        ??SampleApp_MessageMSGCB_1
   \   000020   ....         DW        ??SampleApp_MessageMSGCB_2
    503              {
    504                  // 周期性发送模式ID
    505                  case SAMPLEAPP_PERIODIC_CLUSTERID:
    506                    buf = pkt->cmd.Data;
    507                    HalUARTWrite(0, buf, 8);
   \                     ??SampleApp_MessageMSGCB_1:
   \   000022                ; Setup parameters for call to function HalUARTWrite
   \   000022   7C08         MOV     R4,#0x8
   \   000024   7D00         MOV     R5,#0x0
   \   000026   12....       LCALL   ?Subroutine0 & 0xFFFF
   \                     ??CrossCallReturnLabel_0:
   \   000029   FA           MOV     R2,A
   \   00002A   A3           INC     DPTR
   \   00002B   E0           MOVX    A,@DPTR
   \   00002C   FB           MOV     R3,A
   \   00002D   7900         MOV     R1,#0x0
   \   00002F   12....       LCALL   ??HalUARTWrite?relay
    508                    HalUARTWrite(0,"\r\n", 2);
   \   000032                ; Setup parameters for call to function HalUARTWrite
   \   000032   7C02         MOV     R4,#0x2
   \   000034   7D00         MOV     R5,#0x0
   \   000036   7A..         MOV     R2,#(`?<Constant "\\r\\n">` & 0xff)
   \   000038   7B..         MOV     R3,#((`?<Constant "\\r\\n">` >> 8) & 0xff)
   \   00003A   7900         MOV     R1,#0x0
   \   00003C   12....       LCALL   ??HalUARTWrite?relay
   \   00003F   8030         SJMP    ??SampleApp_MessageMSGCB_0
    509                    break;
    510                
    511                  // flash发送模式ID
    512                  case SAMPLEAPP_FLASH_CLUSTERID:
    513                    flashTime = BUILD_UINT16(pkt->cmd.Data[1], pkt->cmd.Data[2] );
    514                    HalLedBlink( HAL_LED_4, 4, 50, (flashTime / 4) );   // 小灯闪烁
   \                     ??SampleApp_MessageMSGCB_2:
   \   000041   12....       LCALL   ?Subroutine0 & 0xFFFF
    515                    break;
    516              }
   \                     ??CrossCallReturnLabel_1:
   \   000044   F8           MOV     R0,A
   \   000045   A3           INC     DPTR
   \   000046   E0           MOVX    A,@DPTR
   \   000047   F9           MOV     R1,A
   \   000048                ; Setup parameters for call to function HalLedBlink
   \   000048   8882         MOV     DPL,R0
   \   00004A   8983         MOV     DPH,R1
   \   00004C   A3           INC     DPTR
   \   00004D   E0           MOVX    A,@DPTR
   \   00004E   FA           MOV     R2,A
   \   00004F   8882         MOV     DPL,R0
   \   000051   8983         MOV     DPH,R1
   \   000053   A3           INC     DPTR
   \   000054   A3           INC     DPTR
   \   000055   E0           MOVX    A,@DPTR
   \   000056   F9           MOV     R1,A
   \   000057   EA           MOV     A,R2
   \   000058   F5..         MOV     ?V0 + 0,A
   \   00005A   E9           MOV     A,R1
   \   00005B   F5..         MOV     ?V0 + 1,A
   \   00005D   7402         MOV     A,#0x2
   \   00005F   78..         MOV     R0,#?V0 + 0
   \   000061   12....       LCALL   ?US_SHR
   \   000064   AC..         MOV     R4,?V0 + 0
   \   000066   AD..         MOV     R5,?V0 + 1
   \   000068   7B32         MOV     R3,#0x32
   \   00006A   7A04         MOV     R2,#0x4
   \   00006C   7908         MOV     R1,#0x8
   \   00006E   12....       LCALL   ??HalLedBlink?relay
    517          }
   \                     ??SampleApp_MessageMSGCB_0:
   \   000071   80..         SJMP    ??Subroutine2_0

   \                                 In  segment BANKED_CODE, align 1, keep-with-next
   \                     ?Subroutine0:
   \   000000   EA           MOV     A,R2
   \   000001   2421         ADD     A,#0x21
   \   000003   F582         MOV     DPL,A
   \   000005   EB           MOV     A,R3
   \   000006   3400         ADDC    A,#0x0
   \   000008   F583         MOV     DPH,A
   \   00000A   E0           MOVX    A,@DPTR
   \   00000B   22           RET
    518          
    519          /*********************************************************************
    520           * @fn      SampleApp_SendPeriodicMessage
    521           *
    522           * @brief   Send the periodic message.
    523           *          信息的周期性发送
    524           *
    525           * @param   none
    526           *
    527           * @return  none
    528           */

   \                                 In  segment BANKED_CODE, align 1, keep-with-next
   \                     ?Subroutine1:
   \   000000   12....       LCALL   ?DEALLOC_XSTACK8
   \   000003                REQUIRE ??Subroutine2_0
   \   000003                ; // Fall through to label ??Subroutine2_0

   \                                 In  segment BANKED_CODE, align 1, keep-with-next
    529          void SampleApp_SendPeriodicMessage( void )
   \                     SampleApp_SendPeriodicMessage:
    530          {
   \   000000   74F6         MOV     A,#-0xa
   \   000002   12....       LCALL   ?BANKED_ENTER_XDATA
   \   000005                ; Saved register size: 10
   \   000005                ; Auto size: 9
   \   000005   74F7         MOV     A,#-0x9
   \   000007   12....       LCALL   ?ALLOC_XSTACK8
    531              // 下面这个 "~HELLO!~"是自己添加的要发送的数据
    532              char buf[]="~HELLO!~";
   \   00000A   85..82       MOV     DPL,?XSP + 0
   \   00000D   85..83       MOV     DPH,?XSP + 1
   \   000010   AC82         MOV     R4,DPL
   \   000012   AD83         MOV     R5,DPH
   \   000014   7583..       MOV     DPH,#((`?<Constant "~HELLO!~">` >> 8) & 0xff)
   \   000017   7582..       MOV     DPL,#(`?<Constant "~HELLO!~">` & 0xff)
   \   00001A   7409         MOV     A,#0x9
   \   00001C   12....       LCALL   ?MOVE_LONG8_XDATA_XDATA
    533              
    534              /*
    535                 这里详细说明一下关于要发送的目的地址 SampleApp_Periodic_DstAddr，如果我们预先定义为0xFFFF
    536              则表示发送方能向网络内的其他所有节点发送预先定义的数据（即这里虽然是个地址，但主要还是代表了
    537              广播发送这么一个发送模式），相反如果定义为 0x0000，则表示下面的节点均向协调器发送数据。
    538              */
    539              // 这里调用了 AF_DataRequest()函数用来发送数据。关于发送数据的具体过程就不做深入研究。\
    540                不外乎就是把数据从应用层传到网络层，再传到MAC层，再传到物理层，最后通过 OTA发送出去。
    541              AF_DataRequest( &SampleApp_Periodic_DstAddr, &SampleApp_epDesc,  // 目的地址，发送模式
    542                                 SAMPLEAPP_PERIODIC_CLUSTERID,           // 周期性发送簇的ID
    543                                 8,                      // len 要发送的数据长度
    544                                 (unsigned char*)buf,    // uint8 *buf 指向发送数据缓冲的指针
    545                                 &SampleApp_TransID,     // uint8 *transID 事务序列号指针。如果缓存发送，这个函数将增加这个数字
    546                                 AF_DISCV_ROUTE,         // 发送选项。由一项或者几项或运算得到。
    547                                 AF_DEFAULT_RADIUS );    // 最大的跳数，用默认值 AF_DEFAULT_RADIUS
   \   00001F                ; Setup parameters for call to function AF_DataRequest
   \   00001F   75..1E       MOV     ?V0 + 0,#0x1e
   \   000022   78..         MOV     R0,#?V0 + 0
   \   000024   12....       LCALL   ?PUSH_XSTACK_I_ONE
   \   000027   75....       MOV     ?V0 + 0,#(SampleApp_TransID & 0xff)
   \   00002A   75....       MOV     ?V0 + 1,#((SampleApp_TransID >> 8) & 0xff)
   \   00002D   78..         MOV     R0,#?V0 + 0
   \   00002F   12....       LCALL   ?PUSH_XSTACK_I_TWO
   \   000032   7403         MOV     A,#0x3
   \   000034   12....       LCALL   ?XSTACK_DISP0_8
   \   000037   8582..       MOV     ?V0 + 0,DPL
   \   00003A   8583..       MOV     ?V0 + 1,DPH
   \   00003D   78..         MOV     R0,#?V0 + 0
   \   00003F   12....       LCALL   ?PUSH_XSTACK_I_TWO
   \   000042   75..08       MOV     ?V0 + 0,#0x8
   \   000045   75..00       MOV     ?V0 + 1,#0x0
   \   000048   78..         MOV     R0,#?V0 + 0
   \   00004A   12....       LCALL   ?PUSH_XSTACK_I_TWO
   \   00004D   75..01       MOV     ?V0 + 0,#0x1
   \   000050   78..         MOV     R0,#?V0 + 0
   \   000052   12....       LCALL   ?PUSH_XSTACK_I_TWO
   \   000055   7920         MOV     R1,#0x20
   \   000057   7C..         MOV     R4,#(SampleApp_epDesc & 0xff)
   \   000059   7D..         MOV     R5,#((SampleApp_epDesc >> 8) & 0xff)
   \   00005B   7A..         MOV     R2,#(SampleApp_Periodic_DstAddr & 0xff)
   \   00005D   7B..         MOV     R3,#((SampleApp_Periodic_DstAddr >> 8) & 0xff)
   \   00005F   12....       LCALL   ??AF_DataRequest?relay
   \   000062   7409         MOV     A,#0x9
   \   000064   12....       LCALL   ?DEALLOC_XSTACK8
    548          }
   \   000067   7409         MOV     A,#0x9
   \   000069   02....       LJMP    ?Subroutine1 & 0xFFFF
    549          
    550          /*********************************************************************
    551           * @fn      SampleApp_SendFlashMessage
    552           *
    553           * @brief   Send the flash message to group 1.
    554           *
    555           * @param   flashTime - in milliseconds
    556           *
    557           * @return  none
    558           */

   \                                 In  segment BANKED_CODE, align 1, keep-with-next
    559          void SampleApp_SendFlashMessage( uint16 flashTime )
   \                     SampleApp_SendFlashMessage:
    560          {
   \   000000   74F6         MOV     A,#-0xa
   \   000002   12....       LCALL   ?BANKED_ENTER_XDATA
   \   000005                ; Saved register size: 10
   \   000005                ; Auto size: 3
   \   000005   74FD         MOV     A,#-0x3
   \   000007   12....       LCALL   ?ALLOC_XSTACK8
    561              uint8 buffer[3];
    562              buffer[0] = (uint8)(SampleAppFlashCounter++);
   \   00000A   90....       MOV     DPTR,#SampleAppFlashCounter
   \   00000D   E0           MOVX    A,@DPTR
   \   00000E   85..82       MOV     DPL,?XSP + 0
   \   000011   85..83       MOV     DPH,?XSP + 1
   \   000014   F0           MOVX    @DPTR,A
   \   000015   90....       MOV     DPTR,#SampleAppFlashCounter
   \   000018   E0           MOVX    A,@DPTR
   \   000019   04           INC     A
   \   00001A   F0           MOVX    @DPTR,A
    563              buffer[1] = LO_UINT16( flashTime );
   \   00001B   7401         MOV     A,#0x1
   \   00001D   12....       LCALL   ?XSTACK_DISP0_8
   \   000020   EA           MOV     A,R2
   \   000021   F0           MOVX    @DPTR,A
    564              buffer[2] = HI_UINT16( flashTime );
   \   000022   7402         MOV     A,#0x2
   \   000024   12....       LCALL   ?XSTACK_DISP0_8
   \   000027   EB           MOV     A,R3
   \   000028   F0           MOVX    @DPTR,A
    565            
    566              if ( AF_DataRequest( &SampleApp_Flash_DstAddr, &SampleApp_epDesc,
    567                                   SAMPLEAPP_FLASH_CLUSTERID,
    568                                   3,
    569                                   buffer,
    570                                   &SampleApp_TransID,
    571                                   AF_DISCV_ROUTE,
    572                                   AF_DEFAULT_RADIUS ) == afStatus_SUCCESS )
   \   000029                ; Setup parameters for call to function AF_DataRequest
   \   000029   75..1E       MOV     ?V0 + 0,#0x1e
   \   00002C   78..         MOV     R0,#?V0 + 0
   \   00002E   12....       LCALL   ?PUSH_XSTACK_I_ONE
   \   000031   75....       MOV     ?V0 + 0,#(SampleApp_TransID & 0xff)
   \   000034   75....       MOV     ?V0 + 1,#((SampleApp_TransID >> 8) & 0xff)
   \   000037   78..         MOV     R0,#?V0 + 0
   \   000039   12....       LCALL   ?PUSH_XSTACK_I_TWO
   \   00003C   7403         MOV     A,#0x3
   \   00003E   12....       LCALL   ?XSTACK_DISP0_8
   \   000041   8582..       MOV     ?V0 + 0,DPL
   \   000044   8583..       MOV     ?V0 + 1,DPH
   \   000047   78..         MOV     R0,#?V0 + 0
   \   000049   12....       LCALL   ?PUSH_XSTACK_I_TWO
   \   00004C   75..03       MOV     ?V0 + 0,#0x3
   \   00004F   75..00       MOV     ?V0 + 1,#0x0
   \   000052   78..         MOV     R0,#?V0 + 0
   \   000054   12....       LCALL   ?PUSH_XSTACK_I_TWO
   \   000057   75..02       MOV     ?V0 + 0,#0x2
   \   00005A   78..         MOV     R0,#?V0 + 0
   \   00005C   12....       LCALL   ?PUSH_XSTACK_I_TWO
   \   00005F   7920         MOV     R1,#0x20
   \   000061   7C..         MOV     R4,#(SampleApp_epDesc & 0xff)
   \   000063   7D..         MOV     R5,#((SampleApp_epDesc >> 8) & 0xff)
   \   000065   7A..         MOV     R2,#(SampleApp_Flash_DstAddr & 0xff)
   \   000067   7B..         MOV     R3,#((SampleApp_Flash_DstAddr >> 8) & 0xff)
   \   000069   12....       LCALL   ??AF_DataRequest?relay
   \   00006C   7409         MOV     A,#0x9
   \   00006E   12....       LCALL   ?DEALLOC_XSTACK8
    573              {
    574              }
    575              else
    576              {
    577                // Error occurred in request to send.
    578              }
    579          }
   \   000071   7403         MOV     A,#0x3
   \   000073   02....       LJMP    ?Subroutine1 & 0xFFFF

   \                                 In  segment BANK_RELAYS, align 1
   \                     ??SampleApp_Init?relay:
   \   000000   12....       LCALL   ?BDISPATCH
   \   000003   ......       DC24    SampleApp_Init

   \                                 In  segment BANK_RELAYS, align 1
   \                     ??SampleApp_ProcessEvent?relay:
   \   000000   12....       LCALL   ?BDISPATCH
   \   000003   ......       DC24    SampleApp_ProcessEvent

   \                                 In  segment BANK_RELAYS, align 1
   \                     ??SampleApp_HandleKeys?relay:
   \   000000   12....       LCALL   ?BDISPATCH
   \   000003   ......       DC24    SampleApp_HandleKeys

   \                                 In  segment BANK_RELAYS, align 1
   \                     ??SampleApp_MessageMSGCB?relay:
   \   000000   12....       LCALL   ?BDISPATCH
   \   000003   ......       DC24    SampleApp_MessageMSGCB

   \                                 In  segment BANK_RELAYS, align 1
   \                     ??SampleApp_SendPeriodicMessage?relay:
   \   000000   12....       LCALL   ?BDISPATCH
   \   000003   ......       DC24    SampleApp_SendPeriodicMessage

   \                                 In  segment BANK_RELAYS, align 1
   \                     ??SampleApp_SendFlashMessage?relay:
   \   000000   12....       LCALL   ?BDISPATCH
   \   000003   ......       DC24    SampleApp_SendFlashMessage

   \                                 In  segment XDATA_ROM_C, align 1
   \                     `?<Constant "Group 1">`:
   \   000000   47726F75     DB "Group 1"
   \            70203100

   \                                 In  segment XDATA_ROM_C, align 1
   \                     `?<Constant "\\r\\n">`:
   \   000000   0D0A00       DB "\015\012"

   \                                 In  segment XDATA_ROM_C, align 1
   \                     `?<Constant "~HELLO!~">`:
   \   000000   7E48454C     DB "~HELLO!~"
   \            4C4F217E
   \            00      
    580          /*********************************************************************
    581          *********************************************************************/

   Maximum stack usage in bytes:

     Function                       ISTACK PSTACK XSTACK
     --------                       ------ ------ ------
     SampleApp_HandleKeys               0      0     22
       -> SampleApp_SendFlashMessage
                                        0      0     20
       -> aps_FindGroup                 0      0     20
       -> aps_RemoveGroup               0      0     20
       -> aps_AddGroup                  0      0     20
     SampleApp_Init                     0      0     14
       -> afRegister                    0      0     22
       -> RegisterForKeys               0      0     22
       -> MT_UartRegisterTaskID         0      0     22
       -> osal_memcpy                   0      0     28
       -> aps_AddGroup                  0      0     22
     SampleApp_MessageMSGCB             0      0     22
       -> HalUARTWrite                  0      0     20
       -> HalUARTWrite                  0      0     20
       -> HalLedBlink                   0      0     20
     SampleApp_ProcessEvent             0      0     12
       -> osal_msg_receive              0      0     24
       -> HalLedSet                     0      0     24
       -> osal_start_timerEx            0      0     24
       -> osal_msg_deallocate           0      0     24
       -> osal_msg_receive              0      0     24
       -> SampleApp_HandleKeys          0      0     24
       -> SampleApp_MessageMSGCB        0      0     24
       -> SampleApp_SendPeriodicMessage
                                        0      0     24
       -> osal_rand                     0      0     24
       -> osal_start_timerEx            0      0     24
     SampleApp_SendFlashMessage         1      0     32
       -> AF_DataRequest                0      0     44
     SampleApp_SendPeriodicMessage      2      0     40
       -> AF_DataRequest                0      0     56


   Segment part sizes:

     Function/Label                        Bytes
     --------------                        -----
     SampleApp_ClusterList                    4
     SampleApp_SimpleDesc                    12
     SampleApp_epDesc                         6
     SampleApp_TaskID                         1
     SampleApp_NwkState                       1
     SampleApp_TransID                        1
     SampleApp_Periodic_DstAddr              12
     SampleApp_Flash_DstAddr                 12
     SampleApp_Group                         18
     SampleAppPeriodicCounter                 1
     SampleAppFlashCounter                    1
     SampleApp_Init                         168
     SampleApp_ProcessEvent                 218
     SampleApp_HandleKeys                    60
     ??Subroutine2_0                          5
     SampleApp_MessageMSGCB                 115
     ?Subroutine0                            12
     ?Subroutine1                             3
     SampleApp_SendPeriodicMessage          108
     SampleApp_SendFlashMessage             118
     ??SampleApp_Init?relay                   6
     ??SampleApp_ProcessEvent?relay           6
     ??SampleApp_HandleKeys?relay             6
     ??SampleApp_MessageMSGCB?relay           6
     ??SampleApp_SendPeriodicMessage?relay    6
     ??SampleApp_SendFlashMessage?relay       6
     ?<Constant "Group 1">                    8
     ?<Constant "\r\n">                       3
     ?<Constant "~HELLO!~">                   9

 
 807 bytes in segment BANKED_CODE
  36 bytes in segment BANK_RELAYS
  36 bytes in segment XDATA_ROM_C
  53 bytes in segment XDATA_Z
 
 843 bytes of CODE  memory
  36 bytes of CONST memory
  53 bytes of XDATA memory

Errors: none
Warnings: none
