###############################################################################
#                                                                             #
# IAR C/C++ Compiler V7.51A/W32 for 8051                07/Dec/2011  10:04:17 #
# Copyright 2004-2009 IAR Systems AB.                                         #
#                                                                             #
#    Core               =  plain                                              #
#    Code model         =  banked                                             #
#    Data model         =  large                                              #
#    Calling convention =  xdata reentrant                                    #
#    Constant location  =  data_rom                                           #
#    Dptr setup         =  1,16                                               #
#    Source file        =  E:\程序测试目录\十和十二_ZStack-CC2530-2.3.0-1.4.0 #
#                          _两个实验_专业尚阳\Projects\zstack\Samples\SampleA #
#                          pp\Source\SampleApp.c                              #
#    Command line       =  -f E:\程序测试目录\十和十二_ZStack-CC2530-2.3.0-1. #
#                          4.0_两个实验_专业尚阳\Projects\zstack\Samples\Samp #
#                          leApp\CC2530DB\..\..\..\Tools\CC2530DB\f8wCoord.cf #
#                          g (-DCPU32MHZ -DROOT=__near_func                   #
#                          -DMAC_CFG_APP_PENDING_QUEUE=TRUE                   #
#                          -DZDO_COORDINATOR -DRTR_NWK -DBLINK_LEDS) -f       #
#                          E:\程序测试目录\十和十二_ZStack-CC2530-2.3.0-1.4.0 #
#                          _两个实验_专业尚阳\Projects\zstack\Samples\SampleA #
#                          pp\CC2530DB\..\..\..\Tools\CC2530DB\f8wConfig.cfg  #
#                          (-DSECURE=0 -DZG_SECURE_DYNAMIC=0 -DREFLECTOR      #
#                          -DDEFAULT_CHANLIST=0x00000800                      #
#                          -DZDAPP_CONFIG_PAN_ID=0xFFFF                       #
#                          -DNWK_START_DELAY=100 -DEXTENDED_JOINING_RANDOM_MA #
#                          SK=0x007F -DBEACON_REQUEST_DELAY=100               #
#                          -DBEACON_REQ_DELAY_MASK=0x00FF                     #
#                          -DROUTE_EXPIRY_TIME=30 -DAPSC_ACK_WAIT_DURATION_PO #
#                          LLED=3000 -DNWK_INDIRECT_MSG_TIMEOUT=7             #
#                          -DMAX_RREQ_ENTRIES=8 -DAPSC_MAX_FRAME_RETRIES=3    #
#                          -DNWK_MAX_DATA_RETRIES=2                           #
#                          -DMAX_POLL_FAILURE_RETRIES=2 -DMAX_BCAST=9         #
#                          -DAPS_MAX_GROUPS=16 -DMAX_RTG_ENTRIES=40           #
#                          -DNWK_MAX_BINDING_ENTRIES=4                        #
#                          -DMAX_BINDING_CLUSTER_IDS=4 "-DDEFAULT_KEY={0x01,  #
#                          0x03, 0x05, 0x07, 0x09, 0x0B, 0x0D, 0x0F, 0x00,    #
#                          0x02, 0x04, 0x06, 0x08, 0x0A, 0x0C, 0x0D}"         #
#                          -DMAC_MAX_FRAME_SIZE=116 "-DCONST=const __code"    #
#                          -DGENERIC=__generic -DRFD_RCVC_ALWAYS_ON=FALSE     #
#                          -DPOLL_RATE=1000 -DQUEUED_POLL_RATE=100            #
#                          -DRESPONSE_POLL_RATE=100) -DREJOIN_POLL_RATE=440   #
#                          E:\程序测试目录\十和十二_ZStack-CC2530-2.3.0-1.4.0 #
#                          _两个实验_专业尚阳\Projects\zstack\Samples\SampleA #
#                          pp\Source\SampleApp.c -D BUILD_ALL_DEVICES -D      #
#                          HOLD_AUTO_START -D LCD_SUPPORTED -D                #
#                          HAL_UART=FALSE -lC E:\程序测试目录\十和十二_ZStack #
#                          -CC2530-2.3.0-1.4.0_两个实验_专业尚阳\Projects\zst #
#                          ack\Samples\SampleApp\CC2530DB\DemoEB\List\ -lA    #
#                          E:\程序测试目录\十和十二_ZStack-CC2530-2.3.0-1.4.0 #
#                          _两个实验_专业尚阳\Projects\zstack\Samples\SampleA #
#                          pp\CC2530DB\DemoEB\List\ --diag_suppress           #
#                          Pe001,Pa010 -o E:\程序测试目录\十和十二_ZStack-CC2 #
#                          530-2.3.0-1.4.0_两个实验_专业尚阳\Projects\zstack\ #
#                          Samples\SampleApp\CC2530DB\DemoEB\Obj\ -e          #
#                          --require_prototypes --debug --core=plain          #
#                          --dptr=16,1 --data_model=large                     #
#                          --code_model=banked --calling_convention=xdata_ree #
#                          ntrant --place_constants=data_rom                  #
#                          --nr_virtual_regs 8 -I E:\程序测试目录\十和十二_ZS #
#                          tack-CC2530-2.3.0-1.4.0_两个实验_专业尚阳\Projects #
#                          \zstack\Samples\SampleApp\CC2530DB\ -I             #
#                          E:\程序测试目录\十和十二_ZStack-CC2530-2.3.0-1.4.0 #
#                          _两个实验_专业尚阳\Projects\zstack\Samples\SampleA #
#                          pp\CC2530DB\..\SOURCE\ -I                          #
#                          E:\程序测试目录\十和十二_ZStack-CC2530-2.3.0-1.4.0 #
#                          _两个实验_专业尚阳\Projects\zstack\Samples\SampleA #
#                          pp\CC2530DB\..\..\..\ZMAIN\TI2530DB\ -I            #
#                          E:\程序测试目录\十和十二_ZStack-CC2530-2.3.0-1.4.0 #
#                          _两个实验_专业尚阳\Projects\zstack\Samples\SampleA #
#                          pp\CC2530DB\..\..\..\..\..\COMPONENTS\MT\ -I       #
#                          E:\程序测试目录\十和十二_ZStack-CC2530-2.3.0-1.4.0 #
#                          _两个实验_专业尚阳\Projects\zstack\Samples\SampleA #
#                          pp\CC2530DB\..\..\..\..\..\COMPONENTS\HAL\INCLUDE\ #
#                           -I E:\程序测试目录\十和十二_ZStack-CC2530-2.3.0-1 #
#                          .4.0_两个实验_专业尚阳\Projects\zstack\Samples\Sam #
#                          pleApp\CC2530DB\..\..\..\..\..\COMPONENTS\HAL\TARG #
#                          ET\CC2530EB\ -I E:\程序测试目录\十和十二_ZStack-CC #
#                          2530-2.3.0-1.4.0_两个实验_专业尚阳\Projects\zstack #
#                          \Samples\SampleApp\CC2530DB\..\..\..\..\..\COMPONE #
#                          NTS\OSAL\MCU\CCSOC\ -I E:\程序测试目录\十和十二_ZS #
#                          tack-CC2530-2.3.0-1.4.0_两个实验_专业尚阳\Projects #
#                          \zstack\Samples\SampleApp\CC2530DB\..\..\..\..\..\ #
#                          COMPONENTS\OSAL\INCLUDE\ -I                        #
#                          E:\程序测试目录\十和十二_ZStack-CC2530-2.3.0-1.4.0 #
#                          _两个实验_专业尚阳\Projects\zstack\Samples\SampleA #
#                          pp\CC2530DB\..\..\..\..\..\COMPONENTS\STACK\AF\    #
#                          -I E:\程序测试目录\十和十二_ZStack-CC2530-2.3.0-1. #
#                          4.0_两个实验_专业尚阳\Projects\zstack\Samples\Samp #
#                          leApp\CC2530DB\..\..\..\..\..\COMPONENTS\STACK\NWK #
#                          \ -I E:\程序测试目录\十和十二_ZStack-CC2530-2.3.0- #
#                          1.4.0_两个实验_专业尚阳\Projects\zstack\Samples\Sa #
#                          mpleApp\CC2530DB\..\..\..\..\..\COMPONENTS\STACK\S #
#                          EC\ -I E:\程序测试目录\十和十二_ZStack-CC2530-2.3. #
#                          0-1.4.0_两个实验_专业尚阳\Projects\zstack\Samples\ #
#                          SampleApp\CC2530DB\..\..\..\..\..\COMPONENTS\STACK #
#                          \SAPI\ -I E:\程序测试目录\十和十二_ZStack-CC2530-2 #
#                          .3.0-1.4.0_两个实验_专业尚阳\Projects\zstack\Sampl #
#                          es\SampleApp\CC2530DB\..\..\..\..\..\COMPONENTS\ST #
#                          ACK\SYS\ -I E:\程序测试目录\十和十二_ZStack-CC2530 #
#                          -2.3.0-1.4.0_两个实验_专业尚阳\Projects\zstack\Sam #
#                          ples\SampleApp\CC2530DB\..\..\..\..\..\COMPONENTS\ #
#                          STACK\ZDO\ -I E:\程序测试目录\十和十二_ZStack-CC25 #
#                          30-2.3.0-1.4.0_两个实验_专业尚阳\Projects\zstack\S #
#                          amples\SampleApp\CC2530DB\..\..\..\..\..\COMPONENT #
#                          S\ZMAC\F8W\ -I E:\程序测试目录\十和十二_ZStack-CC2 #
#                          530-2.3.0-1.4.0_两个实验_专业尚阳\Projects\zstack\ #
#                          Samples\SampleApp\CC2530DB\..\..\..\..\..\COMPONEN #
#                          TS\ZMAC\ -I E:\程序测试目录\十和十二_ZStack-CC2530 #
#                          -2.3.0-1.4.0_两个实验_专业尚阳\Projects\zstack\Sam #
#                          ples\SampleApp\CC2530DB\..\..\..\..\..\COMPONENTS\ #
#                          SERVICES\SADDR\ -I E:\程序测试目录\十和十二_ZStack #
#                          -CC2530-2.3.0-1.4.0_两个实验_专业尚阳\Projects\zst #
#                          ack\Samples\SampleApp\CC2530DB\..\..\..\..\..\COMP #
#                          ONENTS\SERVICES\SDATA\ -I                          #
#                          E:\程序测试目录\十和十二_ZStack-CC2530-2.3.0-1.4.0 #
#                          _两个实验_专业尚阳\Projects\zstack\Samples\SampleA #
#                          pp\CC2530DB\..\..\..\..\..\COMPONENTS\MAC\INCLUDE\ #
#                           -I E:\程序测试目录\十和十二_ZStack-CC2530-2.3.0-1 #
#                          .4.0_两个实验_专业尚阳\Projects\zstack\Samples\Sam #
#                          pleApp\CC2530DB\..\..\..\..\..\COMPONENTS\MAC\HIGH #
#                          _LEVEL\ -I E:\程序测试目录\十和十二_ZStack-CC2530- #
#                          2.3.0-1.4.0_两个实验_专业尚阳\Projects\zstack\Samp #
#                          les\SampleApp\CC2530DB\..\..\..\..\..\COMPONENTS\M #
#                          AC\LOW_LEVEL\srf04\ -I E:\程序测试目录\十和十二_ZS #
#                          tack-CC2530-2.3.0-1.4.0_两个实验_专业尚阳\Projects #
#                          \zstack\Samples\SampleApp\CC2530DB\..\..\..\..\..\ #
#                          COMPONENTS\MAC\LOW_LEVEL\srf04\SINGLE_CHIP\ -I     #
#                          "C:\Program Files\IAR Systems\Embedded Workbench   #
#                          5.3 Evaluation version\8051\INC\" -I "C:\Program   #
#                          Files\IAR Systems\Embedded Workbench 5.3           #
#                          Evaluation version\8051\INC\CLIB\" -Ohz            #
#    List file          =  E:\程序测试目录\十和十二_ZStack-CC2530-2.3.0-1.4.0 #
#                          _两个实验_专业尚阳\Projects\zstack\Samples\SampleA #
#                          pp\CC2530DB\DemoEB\List\SampleApp.lst              #
#    Object file        =  E:\程序测试目录\十和十二_ZStack-CC2530-2.3.0-1.4.0 #
#                          _两个实验_专业尚阳\Projects\zstack\Samples\SampleA #
#                          pp\CC2530DB\DemoEB\Obj\SampleApp.r51               #
#                                                                             #
#                                                                             #
###############################################################################

E:\程序测试目录\十和十二_ZStack-CC2530-2.3.0-1.4.0_两个实验_专业尚阳\Projects\zstack\Samples\SampleApp\Source\SampleApp.c
      1          /**************************************************************************************************
      2            Filename:       SampleApp.c
      3            Revised:        $Date: 2009-03-18 15:56:27 -0700 (Wed, 18 Mar 2009) $
      4            Revision:       $Revision: 19453 $
      5          
      6            Description:    Sample Application (no Profile).
      7          
      8          
      9            Copyright 2007 Texas Instruments Incorporated. All rights reserved.
     10          
     11            IMPORTANT: Your use of this Software is limited to those specific rights
     12            granted under the terms of a software license agreement between the user
     13            who downloaded the software, his/her employer (which must be your employer)
     14            and Texas Instruments Incorporated (the "License").  You may not use this
     15            Software unless you agree to abide by the terms of the License. The License
     16            limits your use, and you acknowledge, that the Software may not be modified,
     17            copied or distributed unless embedded on a Texas Instruments microcontroller
     18            or used solely and exclusively in conjunction with a Texas Instruments radio
     19            frequency transceiver, which is integrated into your product.  Other than for
     20            the foregoing purpose, you may not use, reproduce, copy, prepare derivative
     21            works of, modify, distribute, perform, display or sell this Software and/or
     22            its documentation for any purpose.
     23          
     24            YOU FURTHER ACKNOWLEDGE AND AGREE THAT THE SOFTWARE AND DOCUMENTATION ARE
     25            PROVIDED AS IS?WITHOUT WARRANTY OF ANY KIND, EITHER EXPRESS OR IMPLIED,
     26            INCLUDING WITHOUT LIMITATION, ANY WARRANTY OF MERCHANTABILITY, TITLE,
     27            NON-INFRINGEMENT AND FITNESS FOR A PARTICULAR PURPOSE. IN NO EVENT SHALL
     28            TEXAS INSTRUMENTS OR ITS LICENSORS BE LIABLE OR OBLIGATED UNDER CONTRACT,
     29            NEGLIGENCE, STRICT LIABILITY, CONTRIBUTION, BREACH OF WARRANTY, OR OTHER
     30            LEGAL EQUITABLE THEORY ANY DIRECT OR INDIRECT DAMAGES OR EXPENSES
     31            INCLUDING BUT NOT LIMITED TO ANY INCIDENTAL, SPECIAL, INDIRECT, PUNITIVE
     32            OR CONSEQUENTIAL DAMAGES, LOST PROFITS OR LOST DATA, COST OF PROCUREMENT
     33            OF SUBSTITUTE GOODS, TECHNOLOGY, SERVICES, OR ANY CLAIMS BY THIRD PARTIES
     34            (INCLUDING BUT NOT LIMITED TO ANY DEFENSE THEREOF), OR OTHER SIMILAR COSTS.
     35          
     36            Should you have any questions regarding your right to use this Software,
     37            contact Texas Instruments Incorporated at www.TI.com.
     38          **************************************************************************************************/
     39          
     40          /*********************************************************************
     41            This application isn't intended to do anything useful, it is
     42            intended to be a simple example of an application's structure.
     43          
     44            This application sends it's messages either as broadcast or
     45            broadcast filtered group messages.  The other (more normal)
     46            message addressing is unicast.  Most of the other sample
     47            applications are written to support the unicast message model.
     48          
     49            Key control:
     50              SW1:  Sends a flash command to all devices in Group 1.
     51              SW2:  Adds/Removes (toggles) this device in and out
     52                    of Group 1.  This will enable and disable the
     53                    reception of the flash command.
     54          *********************************************************************/
     55          
     56          /*********************************************************************
     57           * INCLUDES
     58           */
     59          #include <string.h>
     60          #include "OSAL.h"
     61          #include "ZGlobals.h"
     62          #include "AF.h"
     63          #include "aps_groups.h"
     64          #include "ZDApp.h"
     65          #include "MT_UART.h"   //add by 1305106
     66          
     67          #include "SampleApp.h"
     68          #include "SampleAppHw.h"
     69          
     70          #include "OnBoard.h"
     71          
     72          /* HAL */
     73          #include "hal_lcd.h"
     74          #include "hal_led.h"
     75          #include "hal_key.h"
     76          
     77          /*********************************************************************
     78           * MACROS
     79           */
     80          
     81          /*********************************************************************
     82           * CONSTANTS
     83           */
     84          
     85          /*********************************************************************
     86           * TYPEDEFS
     87           */
     88          
     89          /*********************************************************************
     90           * GLOBAL VARIABLES
     91           */
     92          
     93          // This list should be filled with Application specific Cluster IDs.

   \                                 In  segment XDATA_ROM_C, align 1
     94          const cId_t SampleApp_ClusterList[SAMPLEAPP_MAX_CLUSTERS] =
   \                     SampleApp_ClusterList:
   \   000000   01000200     DW 1, 2, 3
   \            0300    
     95          {
     96            SAMPLEAPP_PERIODIC_CLUSTERID,
     97            SAMPLEAPP_FLASH_CLUSTERID,
     98            SAMPLEAPP_LEDCTL_CLUSTERID
     99          };
    100          

   \                                 In  segment XDATA_ROM_C, align 1
    101          const SimpleDescriptionFormat_t SampleApp_SimpleDesc =
   \                     SampleApp_SimpleDesc:
   \   000000   14           DB 20
   \   000001   080F0100     DW 3848, 1
   \   000005   0003         DB 0, 3
   \   000007   ....         DW SampleApp_ClusterList
   \   000009   03           DB 3
   \   00000A   ....         DW SampleApp_ClusterList
    102          {
    103            SAMPLEAPP_ENDPOINT,              //  int Endpoint;
    104            SAMPLEAPP_PROFID,                //  uint16 AppProfId[2];
    105            SAMPLEAPP_DEVICEID,              //  uint16 AppDeviceId[2];
    106            SAMPLEAPP_DEVICE_VERSION,        //  int   AppDevVer:4;
    107            SAMPLEAPP_FLAGS,                 //  int   AppFlags:4;
    108            SAMPLEAPP_MAX_CLUSTERS,          //  uint8  AppNumInClusters;
    109            (cId_t *)SampleApp_ClusterList,  //  uint8 *pAppInClusterList;
    110            SAMPLEAPP_MAX_CLUSTERS,          //  uint8  AppNumInClusters;
    111            (cId_t *)SampleApp_ClusterList   //  uint8 *pAppInClusterList;
    112          };
    113          
    114          // This is the Endpoint/Interface description.  It is defined here, but
    115          // filled-in in SampleApp_Init().  Another way to go would be to fill
    116          // in the structure here and make it a "const" (in code space).  The
    117          // way it's defined in this sample app it is define in RAM.

   \                                 In  segment XDATA_Z, align 1, keep-with-next
    118          endPointDesc_t SampleApp_epDesc;
   \                     SampleApp_epDesc:
   \   000000                DS 6
   \   000006                REQUIRE __INIT_XDATA_Z
    119          
    120          /*********************************************************************
    121           * EXTERNAL VARIABLES
    122           */
    123          
    124          /*********************************************************************
    125           * EXTERNAL FUNCTIONS
    126           */
    127          
    128          /*********************************************************************
    129           * LOCAL VARIABLES
    130           */

   \                                 In  segment XDATA_Z, align 1, keep-with-next
    131          uint8 SampleApp_TaskID;   // Task ID for internal task/event processing
   \                     SampleApp_TaskID:
   \   000000                DS 1
   \   000001                REQUIRE __INIT_XDATA_Z
    132                                    // This variable will be received when
    133                                    // SampleApp_Init() is called.

   \                                 In  segment XDATA_Z, align 1, keep-with-next
    134          devStates_t SampleApp_NwkState;
   \                     SampleApp_NwkState:
   \   000000                DS 1
   \   000001                REQUIRE __INIT_XDATA_Z
    135          

   \                                 In  segment XDATA_Z, align 1, keep-with-next
    136          uint8 SampleApp_TransID;  // This is the unique message ID (counter)
   \                     SampleApp_TransID:
   \   000000                DS 1
   \   000001                REQUIRE __INIT_XDATA_Z
    137          

   \                                 In  segment XDATA_Z, align 1, keep-with-next
    138          afAddrType_t SampleApp_Periodic_DstAddr;
   \                     SampleApp_Periodic_DstAddr:
   \   000000                DS 12
   \   00000C                REQUIRE __INIT_XDATA_Z

   \                                 In  segment XDATA_Z, align 1, keep-with-next
    139          afAddrType_t SampleApp_Flash_DstAddr;
   \                     SampleApp_Flash_DstAddr:
   \   000000                DS 12
   \   00000C                REQUIRE __INIT_XDATA_Z
    140          

   \                                 In  segment XDATA_Z, align 1, keep-with-next
    141          aps_Group_t SampleApp_Group;
   \                     SampleApp_Group:
   \   000000                DS 18
   \   000012                REQUIRE __INIT_XDATA_Z
    142          

   \                                 In  segment XDATA_Z, align 1, keep-with-next
    143          uint8 SampleAppPeriodicCounter = 0;
   \                     SampleAppPeriodicCounter:
   \   000000                DS 1
   \   000001                REQUIRE __INIT_XDATA_Z

   \                                 In  segment XDATA_Z, align 1, keep-with-next
    144          uint8 SampleAppFlashCounter = 0;
   \                     SampleAppFlashCounter:
   \   000000                DS 1
   \   000001                REQUIRE __INIT_XDATA_Z
    145          
    146          /*********************************************************************
    147           * LOCAL FUNCTIONS
    148           */
    149          void SampleApp_HandleKeys( uint8 shift, uint8 keys );
    150          void SampleApp_MessageMSGCB( afIncomingMSGPacket_t *pckt );
    151          void SampleApp_SendPeriodicMessage( void );
    152          void SampleApp_SendFlashMessage( uint16 flashTime );
    153          
    154          void SampleApp_ProcessMTMessage(afIncomingMSGPacket_t *msg);	
    155          void SetLedStatus(uint8 status);
    156          /*********************************************************************
    157           * NETWORK LAYER CALLBACKS
    158           */
    159          
    160          /*********************************************************************
    161           * PUBLIC FUNCTIONS
    162           */
    163          
    164          /*********************************************************************
    165           * @fn      SampleApp_Init
    166           *
    167           * @brief   Initialization function for the Generic App Task.
    168           *          This is called during initialization and should contain
    169           *          any application specific initialization (ie. hardware
    170           *          initialization/setup, table initialization, power up
    171           *          notificaiton ... ).
    172           *
    173           * @param   task_id - the ID assigned by OSAL.  This ID should be
    174           *                    used to send messages and set timers.
    175           *
    176           * @return  none
    177           */

   \                                 In  segment BANKED_CODE, align 1, keep-with-next
    178          void SampleApp_Init( uint8 task_id )
   \                     SampleApp_Init:
    179          {
   \   000000   74F5         MOV     A,#-0xb
   \   000002   12....       LCALL   ?BANKED_ENTER_XDATA
   \   000005                ; Saved register size: 11
   \   000005                ; Auto size: 0
    180              SampleApp_TaskID = task_id;
   \   000005   E9           MOV     A,R1
   \   000006   90....       MOV     DPTR,#SampleApp_TaskID
   \   000009   F0           MOVX    @DPTR,A
    181              SampleApp_NwkState = DEV_INIT;
   \   00000A   7401         MOV     A,#0x1
   \   00000C   90....       MOV     DPTR,#SampleApp_NwkState
   \   00000F   F0           MOVX    @DPTR,A
    182              SampleApp_TransID = 0;
   \   000010   E4           CLR     A
   \   000011   90....       MOV     DPTR,#SampleApp_TransID
   \   000014   F0           MOVX    @DPTR,A
    183            
    184              // Device hardware initialization can be added here or in main() (Zmain.c).
    185              // If the hardware is application specific - add it here.
    186              // If the hardware is other parts of the device add it in main().
    187            
    188             #if defined ( BUILD_ALL_DEVICES )
    189              // The "Demo" target is setup to have BUILD_ALL_DEVICES and HOLD_AUTO_START
    190              // We are looking at a jumper (defined in SampleAppHw.c) to be jumpered
    191              // together - if they are - we will start up a coordinator. Otherwise,
    192              // the device will start as a router.
    193              if ( readCoordinatorJumper() )
   \   000015                ; Setup parameters for call to function readCoordinatorJumper
   \   000015   12....       LCALL   ??readCoordinatorJumper?relay
   \   000018   E9           MOV     A,R1
   \   000019   6003         JZ      ??SampleApp_Init_0
    194                zgDeviceLogicalType = ZG_DEVICETYPE_COORDINATOR;
   \   00001B   E4           CLR     A
   \   00001C   8002         SJMP    ??SampleApp_Init_1
    195              else
    196                zgDeviceLogicalType = ZG_DEVICETYPE_ROUTER;
   \                     ??SampleApp_Init_0:
   \   00001E   7401         MOV     A,#0x1
   \                     ??SampleApp_Init_1:
   \   000020   90....       MOV     DPTR,#zgDeviceLogicalType
   \   000023   F0           MOVX    @DPTR,A
    197            #endif // BUILD_ALL_DEVICES
    198            
    199            #if defined ( HOLD_AUTO_START )
    200              // HOLD_AUTO_START is a compile option that will surpress ZDApp
    201              //  from starting the device and wait for the application to
    202              //  start the device.
    203              ZDOInitDevice(0);
   \   000024                ; Setup parameters for call to function ZDOInitDevice
   \   000024   7A00         MOV     R2,#0x0
   \   000026   7B00         MOV     R3,#0x0
   \   000028   12....       LCALL   ??ZDOInitDevice?relay
    204            #endif
    205            
    206              // Setup for the periodic message's destination address
    207              // Broadcast to everyone
    208              SampleApp_Periodic_DstAddr.addrMode = (afAddrMode_t)AddrBroadcast;
   \   00002B   740F         MOV     A,#0xf
   \   00002D   90....       MOV     DPTR,#(SampleApp_Periodic_DstAddr + 8)
   \   000030   F0           MOVX    @DPTR,A
    209              SampleApp_Periodic_DstAddr.endPoint = SAMPLEAPP_ENDPOINT;
   \   000031   7414         MOV     A,#0x14
   \   000033   90....       MOV     DPTR,#(SampleApp_Periodic_DstAddr + 9)
   \   000036   F0           MOVX    @DPTR,A
    210              SampleApp_Periodic_DstAddr.addr.shortAddr = 0xFFFF;
   \   000037   90....       MOV     DPTR,#SampleApp_Periodic_DstAddr
   \   00003A   74FF         MOV     A,#-0x1
   \   00003C   F0           MOVX    @DPTR,A
   \   00003D   A3           INC     DPTR
   \   00003E   F0           MOVX    @DPTR,A
    211            
    212              // Setup for the flash command's destination address - Group 1
    213              SampleApp_Flash_DstAddr.addrMode = (afAddrMode_t)afAddrGroup;
   \   00003F   7401         MOV     A,#0x1
   \   000041   90....       MOV     DPTR,#(SampleApp_Flash_DstAddr + 8)
   \   000044   F0           MOVX    @DPTR,A
    214              SampleApp_Flash_DstAddr.endPoint = SAMPLEAPP_ENDPOINT;
   \   000045   7414         MOV     A,#0x14
   \   000047   90....       MOV     DPTR,#(SampleApp_Flash_DstAddr + 9)
   \   00004A   F0           MOVX    @DPTR,A
    215              SampleApp_Flash_DstAddr.addr.shortAddr = SAMPLEAPP_FLASH_GROUP;
   \   00004B   90....       MOV     DPTR,#SampleApp_Flash_DstAddr
   \   00004E   7401         MOV     A,#0x1
   \   000050   F0           MOVX    @DPTR,A
   \   000051   A3           INC     DPTR
   \   000052   E4           CLR     A
   \   000053   F0           MOVX    @DPTR,A
    216            
    217              // Fill out the endpoint description.
    218              SampleApp_epDesc.endPoint = SAMPLEAPP_ENDPOINT;
   \   000054   7414         MOV     A,#0x14
   \   000056   90....       MOV     DPTR,#SampleApp_epDesc
   \   000059   F0           MOVX    @DPTR,A
    219              SampleApp_epDesc.task_id = &SampleApp_TaskID;
   \   00005A   90....       MOV     DPTR,#(SampleApp_epDesc + 1)
   \   00005D   74..         MOV     A,#(SampleApp_TaskID & 0xff)
   \   00005F   F0           MOVX    @DPTR,A
   \   000060   A3           INC     DPTR
   \   000061   74..         MOV     A,#((SampleApp_TaskID >> 8) & 0xff)
   \   000063   F0           MOVX    @DPTR,A
    220              SampleApp_epDesc.simpleDesc
    221                        = (SimpleDescriptionFormat_t *)&SampleApp_SimpleDesc;
   \   000064   90....       MOV     DPTR,#(SampleApp_epDesc + 3)
   \   000067   74..         MOV     A,#(SampleApp_SimpleDesc & 0xff)
   \   000069   F0           MOVX    @DPTR,A
   \   00006A   A3           INC     DPTR
   \   00006B   74..         MOV     A,#((SampleApp_SimpleDesc >> 8) & 0xff)
   \   00006D   F0           MOVX    @DPTR,A
    222              SampleApp_epDesc.latencyReq = noLatencyReqs;
   \   00006E   E4           CLR     A
   \   00006F   90....       MOV     DPTR,#(SampleApp_epDesc + 5)
   \   000072   F0           MOVX    @DPTR,A
    223            
    224              // Register the endpoint description with the AF
    225              afRegister( &SampleApp_epDesc );
   \   000073                ; Setup parameters for call to function afRegister
   \   000073   7A..         MOV     R2,#(SampleApp_epDesc & 0xff)
   \   000075   7B..         MOV     R3,#((SampleApp_epDesc >> 8) & 0xff)
   \   000077   12....       LCALL   ??afRegister?relay
    226            
    227              // Register for all key events - This app will handle all key events
    228              RegisterForKeys( SampleApp_TaskID );
   \   00007A                ; Setup parameters for call to function RegisterForKeys
   \   00007A   90....       MOV     DPTR,#SampleApp_TaskID
   \   00007D   E0           MOVX    A,@DPTR
   \   00007E   F9           MOV     R1,A
   \   00007F   12....       LCALL   ??RegisterForKeys?relay
    229              MT_UartRegisterTaskID( SampleApp_TaskID ); //add by 1305106
   \   000082                ; Setup parameters for call to function MT_UartRegisterTaskID
   \   000082   90....       MOV     DPTR,#SampleApp_TaskID
   \   000085   E0           MOVX    A,@DPTR
   \   000086   F9           MOV     R1,A
   \   000087   12....       LCALL   ??MT_UartRegisterTaskID?relay
    230              
    231              // By default, all devices start out in Group 1
    232              SampleApp_Group.ID = 0x0001;
   \   00008A   90....       MOV     DPTR,#SampleApp_Group
   \   00008D   7401         MOV     A,#0x1
   \   00008F   F0           MOVX    @DPTR,A
   \   000090   A3           INC     DPTR
   \   000091   E4           CLR     A
   \   000092   F0           MOVX    @DPTR,A
    233              osal_memcpy( SampleApp_Group.name, "Group 1", 7  );
   \   000093                ; Setup parameters for call to function osal_memcpy
   \   000093   75....       MOV     ?V0 + 0,#(`?<Constant "Group 1">` & 0xff)
   \   000096   75....       MOV     ?V0 + 1,#((`?<Constant "Group 1">` >> 8) & 0xff)
   \   000099   F5..         MOV     ?V0 + 2,A
   \   00009B   78..         MOV     R0,#?V0 + 0
   \   00009D   12....       LCALL   ?PUSH_XSTACK_I_THREE
   \   0000A0   7C07         MOV     R4,#0x7
   \   0000A2   7D00         MOV     R5,#0x0
   \   0000A4   7A..         MOV     R2,#((SampleApp_Group + 2) & 0xff)
   \   0000A6   7B..         MOV     R3,#(((SampleApp_Group + 2) >> 8) & 0xff)
   \   0000A8   12....       LCALL   ??osal_memcpy?relay
   \   0000AB   7403         MOV     A,#0x3
   \   0000AD   12....       LCALL   ?DEALLOC_XSTACK8
    234              aps_AddGroup( SAMPLEAPP_ENDPOINT, &SampleApp_Group );
   \   0000B0                ; Setup parameters for call to function aps_AddGroup
   \   0000B0   7A..         MOV     R2,#(SampleApp_Group & 0xff)
   \   0000B2   7B..         MOV     R3,#((SampleApp_Group >> 8) & 0xff)
   \   0000B4   7914         MOV     R1,#0x14
   \   0000B6   12....       LCALL   ??aps_AddGroup?relay
    235            
    236            #if defined ( LCD_SUPPORTED )
    237              HalLcdWriteString( "SampleApp", HAL_LCD_LINE_1 );
   \   0000B9                ; Setup parameters for call to function HalLcdWriteString
   \   0000B9   7901         MOV     R1,#0x1
   \   0000BB   7A..         MOV     R2,#(`?<Constant "SampleApp">` & 0xff)
   \   0000BD   7B..         MOV     R3,#((`?<Constant "SampleApp">` >> 8) & 0xff)
   \   0000BF   12....       LCALL   ??HalLcdWriteString?relay
    238            #endif
    239          }
   \   0000C2   7F03         MOV     R7,#0x3
   \   0000C4   02....       LJMP    ?BANKED_LEAVE_XDATA
    240          
    241          /*********************************************************************
    242           * @fn      SampleApp_ProcessEvent
    243           *
    244           * @brief   Generic Application Task event processor.  This function
    245           *          is called to process all events for the task.  Events
    246           *          include timers, messages and any other user defined events.
    247           *
    248           * @param   task_id  - The OSAL assigned task ID.
    249           * @param   events - events to process.  This is a bit map and can
    250           *                   contain more than one event.
    251           *
    252           * @return  none
    253           */

   \                                 In  segment BANKED_CODE, align 1, keep-with-next
    254          uint16 SampleApp_ProcessEvent( uint8 task_id, uint16 events )
   \                     SampleApp_ProcessEvent:
    255          {
   \   000000   74F4         MOV     A,#-0xc
   \   000002   12....       LCALL   ?BANKED_ENTER_XDATA
   \   000005                ; Saved register size: 12
   \   000005                ; Auto size: 0
   \   000005   EA           MOV     A,R2
   \   000006   FE           MOV     R6,A
   \   000007   EB           MOV     A,R3
   \   000008   FF           MOV     R7,A
    256              afIncomingMSGPacket_t *MSGpkt;
    257              (void)task_id;  // Intentionally unreferenced parameter
    258              
    259              if ( events & SYS_EVENT_MSG )
   \   000009   7480         MOV     A,#-0x80
   \   00000B   5F           ANL     A,R7
   \   00000C   F9           MOV     R1,A
   \   00000D   E4           CLR     A
   \   00000E   7001         JNZ     ??SampleApp_ProcessEvent_0
   \   000010   E9           MOV     A,R1
   \                     ??SampleApp_ProcessEvent_0:
   \   000011   7003         JNZ     $+5
   \   000013   02....       LJMP    ??SampleApp_ProcessEvent_1 & 0xFFFF
    260              {
    261                  MSGpkt = (afIncomingMSGPacket_t *)osal_msg_receive( SampleApp_TaskID );
   \   000016                ; Setup parameters for call to function osal_msg_receive
   \   000016   8031         SJMP    ??SampleApp_ProcessEvent_2
    262                  while ( MSGpkt )
    263                  {
    264                      switch ( MSGpkt->hdr.event )
    265                      {
    266                        // Received when a key is pressed
    267                        case KEY_CHANGE:
    268                          SampleApp_HandleKeys( ((keyChange_t *)MSGpkt)->state, ((keyChange_t *)MSGpkt)->keys );
    269                          break;
    270                
    271                        // Received when a messages is received (OTA) for this endpoint
    272                        case AF_INCOMING_MSG_CMD:
    273                          SampleApp_MessageMSGCB( MSGpkt );
    274                          break;
    275                        
    276                        case SPI_INCOMING_ZAPP_DATA:
    277                          SampleApp_ProcessMTMessage(MSGpkt);
    278                          MT_UartAppFlowControl (MT_UART_ZAPP_RX_READY);
    279                          break;
    280                
    281                        // Received whenever the device changes state in the network
    282                        case ZDO_STATE_CHANGE:
    283                          SampleApp_NwkState = (devStates_t)(MSGpkt->hdr.status);
   \                     ??SampleApp_ProcessEvent_3:
   \   000018   85..82       MOV     DPL,?V0 + 0
   \   00001B   85..83       MOV     DPH,?V0 + 1
   \   00001E   A3           INC     DPTR
   \   00001F   E0           MOVX    A,@DPTR
   \   000020   90....       MOV     DPTR,#SampleApp_NwkState
   \   000023   F0           MOVX    @DPTR,A
    284                          if ( (SampleApp_NwkState == DEV_ZB_COORD)
    285                              || (SampleApp_NwkState == DEV_ROUTER)
    286                              || (SampleApp_NwkState == DEV_END_DEVICE) )
   \   000024   6409         XRL     A,#0x9
   \   000026   600A         JZ      ??SampleApp_ProcessEvent_4
   \   000028   E0           MOVX    A,@DPTR
   \   000029   6407         XRL     A,#0x7
   \   00002B   6005         JZ      ??SampleApp_ProcessEvent_4
   \   00002D   E0           MOVX    A,@DPTR
   \   00002E   6406         XRL     A,#0x6
   \   000030   7010         JNZ     ??SampleApp_ProcessEvent_5
    287                          {
    288                            // Start sending the periodic message in a regular interval.
    289                            osal_start_timerEx( SampleApp_TaskID,
    290                                              SAMPLEAPP_SEND_PERIODIC_MSG_EVT,
    291                                              SAMPLEAPP_SEND_PERIODIC_MSG_TIMEOUT );
   \                     ??SampleApp_ProcessEvent_4:
   \   000032                ; Setup parameters for call to function osal_start_timerEx
   \   000032   7C88         MOV     R4,#-0x78
   \   000034   7D13         MOV     R5,#0x13
   \   000036   7A01         MOV     R2,#0x1
   \   000038   7B00         MOV     R3,#0x0
   \   00003A   90....       MOV     DPTR,#SampleApp_TaskID
   \   00003D   E0           MOVX    A,@DPTR
   \   00003E   F9           MOV     R1,A
   \   00003F   12....       LCALL   ??osal_start_timerEx?relay
    292                          }
    293                          else
    294                          {
    295                            // Device is no longer in the network
    296                          }
    297                          break;
    298                
    299                        default:
    300                          break;
    301                    }
    302                    osal_msg_deallocate( (uint8 *)MSGpkt );                                   // Release the memory
   \                     ??SampleApp_ProcessEvent_5:
   \   000042                ; Setup parameters for call to function osal_msg_deallocate
   \   000042   AA..         MOV     R2,?V0 + 0
   \   000044   AB..         MOV     R3,?V0 + 1
   \   000046   12....       LCALL   ??osal_msg_deallocate?relay
    303                    MSGpkt = (afIncomingMSGPacket_t *)osal_msg_receive( SampleApp_TaskID );   // Next - if one is available
   \   000049                ; Setup parameters for call to function osal_msg_receive
   \                     ??SampleApp_ProcessEvent_2:
   \   000049   90....       MOV     DPTR,#SampleApp_TaskID
   \   00004C   E0           MOVX    A,@DPTR
   \   00004D   F9           MOV     R1,A
   \   00004E   12....       LCALL   ??osal_msg_receive?relay
   \   000051   8A..         MOV     ?V0 + 0,R2
   \   000053   8B..         MOV     ?V0 + 1,R3
   \   000055   E5..         MOV     A,?V0 + 0
   \   000057   7002         JNZ     ??SampleApp_ProcessEvent_6
   \   000059   E5..         MOV     A,?V0 + 1
   \                     ??SampleApp_ProcessEvent_6:
   \   00005B   604B         JZ      ??SampleApp_ProcessEvent_7
   \   00005D   85..82       MOV     DPL,?V0 + 0
   \   000060   85..83       MOV     DPH,?V0 + 1
   \   000063   E0           MOVX    A,@DPTR
   \   000064   12....       LCALL   ?UC_SWITCH_SPARSE
   \                     `?<Jumptable for SampleApp_ProcessEvent>_0`:
   \   000067   00           DB        0
   \   000068   04           DB        4
   \   000069   1A           DB        26
   \   00006A   ....         DW        ??SampleApp_ProcessEvent_8
   \   00006C   22           DB        34
   \   00006D   ....         DW        ??SampleApp_ProcessEvent_9
   \   00006F   C0           DB        192
   \   000070   ....         DW        ??SampleApp_ProcessEvent_10
   \   000072   D1           DB        209
   \   000073   ....         DW        ??SampleApp_ProcessEvent_3
   \   000075   ....         DW        ??SampleApp_ProcessEvent_5
   \                     ??SampleApp_ProcessEvent_10:
   \   000077                ; Setup parameters for call to function SampleApp_HandleKeys
   \   000077   85..82       MOV     DPL,?V0 + 0
   \   00007A   85..83       MOV     DPH,?V0 + 1
   \   00007D   A3           INC     DPTR
   \   00007E   A3           INC     DPTR
   \   00007F   A3           INC     DPTR
   \   000080   E0           MOVX    A,@DPTR
   \   000081   FA           MOV     R2,A
   \   000082   85..82       MOV     DPL,?V0 + 0
   \   000085   85..83       MOV     DPH,?V0 + 1
   \   000088   A3           INC     DPTR
   \   000089   A3           INC     DPTR
   \   00008A   E0           MOVX    A,@DPTR
   \   00008B   F9           MOV     R1,A
   \   00008C   12....       LCALL   ??SampleApp_HandleKeys?relay
   \   00008F   80B1         SJMP    ??SampleApp_ProcessEvent_5
   \                     ??SampleApp_ProcessEvent_8:
   \   000091                ; Setup parameters for call to function SampleApp_MessageMSGCB
   \   000091   AA..         MOV     R2,?V0 + 0
   \   000093   AB..         MOV     R3,?V0 + 1
   \   000095   12....       LCALL   ??SampleApp_MessageMSGCB?relay
   \   000098   80A8         SJMP    ??SampleApp_ProcessEvent_5
   \                     ??SampleApp_ProcessEvent_9:
   \   00009A                ; Setup parameters for call to function SampleApp_ProcessMTMessage
   \   00009A   AA..         MOV     R2,?V0 + 0
   \   00009C   AB..         MOV     R3,?V0 + 1
   \   00009E   12....       LCALL   ??SampleApp_ProcessMTMessage?relay
   \   0000A1                ; Setup parameters for call to function MT_UartAppFlowControl
   \   0000A1   7901         MOV     R1,#0x1
   \   0000A3   12....       LCALL   ??MT_UartAppFlowControl?relay
   \   0000A6   809A         SJMP    ??SampleApp_ProcessEvent_5
    304                }
    305            
    306                return (events ^ SYS_EVENT_MSG);    // return unprocessed events
   \                     ??SampleApp_ProcessEvent_7:
   \   0000A8   EE           MOV     A,R6
   \   0000A9   FA           MOV     R2,A
   \   0000AA   7480         MOV     A,#-0x80
   \   0000AC   6F           XRL     A,R7
   \                     ??SampleApp_ProcessEvent_11:
   \   0000AD   FB           MOV     R3,A
   \   0000AE   802F         SJMP    ??SampleApp_ProcessEvent_12
    307              }
    308            
    309              // Send a message out - This event is generated by a timer
    310              //  (setup in SampleApp_Init()).
    311              if ( events & SAMPLEAPP_SEND_PERIODIC_MSG_EVT )
   \                     ??SampleApp_ProcessEvent_1:
   \   0000B0   EE           MOV     A,R6
   \   0000B1   A2E0         MOV     C,0xE0 /* A   */.0
   \   0000B3   5026         JNC     ??SampleApp_ProcessEvent_13
    312              {
    313                SampleApp_SendPeriodicMessage();   // Send the periodic message
   \   0000B5                ; Setup parameters for call to function SampleApp_SendPeriodicMessage
   \   0000B5   12....       LCALL   ??SampleApp_SendPeriodicMessage?relay
    314                // Setup to send message again in normal period (+ a little jitter)
    315                osal_start_timerEx( SampleApp_TaskID, SAMPLEAPP_SEND_PERIODIC_MSG_EVT,
    316                    (SAMPLEAPP_SEND_PERIODIC_MSG_TIMEOUT + (osal_rand() & 0x00FF)) ); 
   \   0000B8                ; Setup parameters for call to function osal_rand
   \   0000B8   12....       LCALL   ??osal_rand?relay
   \   0000BB   8A..         MOV     ?V0 + 0,R2
   \   0000BD   A8..         MOV     R0,?V0 + 0
   \   0000BF                ; Setup parameters for call to function osal_start_timerEx
   \   0000BF   7488         MOV     A,#-0x78
   \   0000C1   28           ADD     A,R0
   \   0000C2   FC           MOV     R4,A
   \   0000C3   7413         MOV     A,#0x13
   \   0000C5   3400         ADDC    A,#0x0
   \   0000C7   FD           MOV     R5,A
   \   0000C8   7A01         MOV     R2,#0x1
   \   0000CA   7B00         MOV     R3,#0x0
   \   0000CC   90....       MOV     DPTR,#SampleApp_TaskID
   \   0000CF   E0           MOVX    A,@DPTR
   \   0000D0   F9           MOV     R1,A
   \   0000D1   12....       LCALL   ??osal_start_timerEx?relay
    317                return (events ^ SAMPLEAPP_SEND_PERIODIC_MSG_EVT);     // return unprocessed events
   \   0000D4   7401         MOV     A,#0x1
   \   0000D6   6E           XRL     A,R6
   \   0000D7   FA           MOV     R2,A
   \   0000D8   EF           MOV     A,R7
   \   0000D9   80D2         SJMP    ??SampleApp_ProcessEvent_11
    318              }
    319           
    320              return 0;   // Discard unknown events
   \                     ??SampleApp_ProcessEvent_13:
   \   0000DB   7A00         MOV     R2,#0x0
   \   0000DD   7B00         MOV     R3,#0x0
   \                     ??SampleApp_ProcessEvent_12:
   \   0000DF   7F04         MOV     R7,#0x4
   \   0000E1   02....       LJMP    ?BANKED_LEAVE_XDATA
    321          }
    322          
    323          /*********************************************************************
    324           * Event Generation Functions
    325           */
    326          /*********************************************************************
    327           * @fn      SampleApp_HandleKeys
    328           *
    329           * @brief   Handles all key events for this device.
    330           *
    331           * @param   shift - true if in shift/alt.
    332           * @param   keys - bit field for key events. Valid entries:
    333           *                 HAL_KEY_SW_2
    334           *                 HAL_KEY_SW_1
    335           *
    336           * @return  none
    337           */

   \                                 In  segment BANKED_CODE, align 1, keep-with-next
    338          void SampleApp_HandleKeys( uint8 shift, uint8 keys )
   \                     SampleApp_HandleKeys:
    339          {
   \   000000   74F6         MOV     A,#-0xa
   \   000002   12....       LCALL   ?BANKED_ENTER_XDATA
   \   000005                ; Saved register size: 10
   \   000005                ; Auto size: 0
   \   000005   EA           MOV     A,R2
   \   000006   FE           MOV     R6,A
    340              (void)shift;  // Intentionally unreferenced parameter
    341              
    342              if ( keys & HAL_KEY_SW_6 ) 
   \   000007   A2E5         MOV     C,0xE0 /* A   */.5
   \   000009   5007         JNC     ??SampleApp_HandleKeys_0
    343              {
    344                /* This key sends the Flash Command is sent to Group 1.
    345                 * This device will not receive the Flash Command from this
    346                 * device (even if it belongs to group 1).
    347                 */
    348                SampleApp_SendFlashMessage( SAMPLEAPP_FLASH_DURATION );
   \   00000B                ; Setup parameters for call to function SampleApp_SendFlashMessage
   \   00000B   7AE8         MOV     R2,#-0x18
   \   00000D   7B03         MOV     R3,#0x3
   \   00000F   12....       LCALL   ??SampleApp_SendFlashMessage?relay
    349              }
    350            
    351              if ( keys & HAL_KEY_SW_2 )
   \                     ??SampleApp_HandleKeys_0:
   \   000012   EE           MOV     A,R6
   \   000013   A2E1         MOV     C,0xE0 /* A   */.1
   \   000015   5023         JNC     ??SampleApp_HandleKeys_1
    352              {
    353                  /* The Flashr Command is sent to Group 1.
    354                   * This key toggles this device in and out of group 1.
    355                   * If this device doesn't belong to group 1, this application
    356                   * will not receive the Flash command sent to group 1.
    357                   */
    358                  aps_Group_t *grp;
    359                  grp = aps_FindGroup( SAMPLEAPP_ENDPOINT, SAMPLEAPP_FLASH_GROUP );
    360                  if ( grp )
   \   000017                ; Setup parameters for call to function aps_FindGroup
   \   000017   7A01         MOV     R2,#0x1
   \   000019   7B00         MOV     R3,#0x0
   \   00001B   7914         MOV     R1,#0x14
   \   00001D   12....       LCALL   ??aps_FindGroup?relay
   \   000020   EA           MOV     A,R2
   \   000021   7001         JNZ     ??SampleApp_HandleKeys_2
   \   000023   EB           MOV     A,R3
   \                     ??SampleApp_HandleKeys_2:
   \   000024   600B         JZ      ??SampleApp_HandleKeys_3
    361                  {
    362                    // Remove from the group
    363                    aps_RemoveGroup( SAMPLEAPP_ENDPOINT, SAMPLEAPP_FLASH_GROUP );
   \   000026                ; Setup parameters for call to function aps_RemoveGroup
   \   000026   7A01         MOV     R2,#0x1
   \   000028   7B00         MOV     R3,#0x0
   \   00002A   7914         MOV     R1,#0x14
   \   00002C   12....       LCALL   ??aps_RemoveGroup?relay
   \   00002F   8009         SJMP    ??SampleApp_HandleKeys_1
    364                  }
    365                  else
    366                  {
    367                    // Add to the flash group
    368                    aps_AddGroup( SAMPLEAPP_ENDPOINT, &SampleApp_Group );
   \                     ??SampleApp_HandleKeys_3:
   \   000031                ; Setup parameters for call to function aps_AddGroup
   \   000031   7A..         MOV     R2,#(SampleApp_Group & 0xff)
   \   000033   7B..         MOV     R3,#((SampleApp_Group >> 8) & 0xff)
   \   000035   7914         MOV     R1,#0x14
   \   000037   12....       LCALL   ??aps_AddGroup?relay
    369                  }
    370              }
    371          }
   \                     ??SampleApp_HandleKeys_1:
   \   00003A   02....       LJMP    ??Subroutine2_0 & 0xFFFF

   \                                 In  segment BANKED_CODE, align 1, keep-with-next
   \                     ??Subroutine2_0:
   \   000000   7F02         MOV     R7,#0x2
   \   000002   02....       LJMP    ?BANKED_LEAVE_XDATA
    372          
    373          /*********************************************************************
    374           * LOCAL FUNCTIONS
    375           */
    376          
    377          /*********************************************************************
    378           * @fn      SampleApp_MessageMSGCB
    379           *
    380           * @brief   Data message processor callback.  This function processes
    381           *          any incoming data - probably from other devices.  So, based
    382           *          on cluster ID, perform the intended action.
    383           *
    384           * @param   none
    385           *
    386           * @return  none
    387           */

   \                                 In  segment BANKED_CODE, align 1, keep-with-next
    388          void SampleApp_MessageMSGCB( afIncomingMSGPacket_t *pkt )
   \                     SampleApp_MessageMSGCB:
    389          {
   \   000000   74F6         MOV     A,#-0xa
   \   000002   12....       LCALL   ?BANKED_ENTER_XDATA
   \   000005                ; Saved register size: 10
   \   000005                ; Auto size: 0
    390              uint16 flashTime;
    391            
    392              switch ( pkt->clusterId )
   \   000005   8A82         MOV     DPL,R2
   \   000007   8B83         MOV     DPH,R3
   \   000009   A3           INC     DPTR
   \   00000A   A3           INC     DPTR
   \   00000B   A3           INC     DPTR
   \   00000C   A3           INC     DPTR
   \   00000D   E0           MOVX    A,@DPTR
   \   00000E   F5..         MOV     ?V0 + 0,A
   \   000010   A3           INC     DPTR
   \   000011   E0           MOVX    A,@DPTR
   \   000012   F5..         MOV     ?V0 + 1,A
   \   000014   78..         MOV     R0,#?V0 + 0
   \   000016   12....       LCALL   ?US_SWITCH_DENSE
   \                     `?<Jumptable for SampleApp_MessageMSGCB>_0`:
   \   000019   0200         DW        2
   \   00001B   01           DB        1
   \   00001C   ....         DW        ??SampleApp_MessageMSGCB_0
   \   00001E   ....         DW        ??SampleApp_MessageMSGCB_1
   \   000020   ....         DW        ??SampleApp_MessageMSGCB_2
    393              {
    394                  case SAMPLEAPP_PERIODIC_CLUSTERID:
    395                    break;
    396              
    397                  case SAMPLEAPP_FLASH_CLUSTERID:
    398                    flashTime = BUILD_UINT16(pkt->cmd.Data[1], pkt->cmd.Data[2] );
    399                    HalLedBlink( HAL_LED_4, 4, 50, (flashTime / 4) );
   \                     ??SampleApp_MessageMSGCB_1:
   \   000022   12....       LCALL   ?Subroutine0 & 0xFFFF
   \                     ??CrossCallReturnLabel_0:
   \   000025   F9           MOV     R1,A
   \   000026                ; Setup parameters for call to function HalLedBlink
   \   000026   8882         MOV     DPL,R0
   \   000028   8983         MOV     DPH,R1
   \   00002A   A3           INC     DPTR
   \   00002B   E0           MOVX    A,@DPTR
   \   00002C   FA           MOV     R2,A
   \   00002D   8882         MOV     DPL,R0
   \   00002F   8983         MOV     DPH,R1
   \   000031   A3           INC     DPTR
   \   000032   A3           INC     DPTR
   \   000033   E0           MOVX    A,@DPTR
   \   000034   F9           MOV     R1,A
   \   000035   EA           MOV     A,R2
   \   000036   F5..         MOV     ?V0 + 0,A
   \   000038   E9           MOV     A,R1
   \   000039   F5..         MOV     ?V0 + 1,A
   \   00003B   7402         MOV     A,#0x2
   \   00003D   78..         MOV     R0,#?V0 + 0
   \   00003F   12....       LCALL   ?US_SHR
   \   000042   AC..         MOV     R4,?V0 + 0
   \   000044   AD..         MOV     R5,?V0 + 1
   \   000046   7B32         MOV     R3,#0x32
   \   000048   7A04         MOV     R2,#0x4
   \   00004A   7908         MOV     R1,#0x8
   \   00004C   12....       LCALL   ??HalLedBlink?relay
   \   00004F   800C         SJMP    ??SampleApp_MessageMSGCB_0
    400                    break;
    401                  case SAMPLEAPP_LEDCTL_CLUSTERID:
    402                    SetLedStatus(pkt->cmd.Data[0]);
   \                     ??SampleApp_MessageMSGCB_2:
   \   000051                ; Setup parameters for call to function SetLedStatus
   \   000051   12....       LCALL   ?Subroutine0 & 0xFFFF
    403                    break;
    404              }
   \                     ??CrossCallReturnLabel_1:
   \   000054   F583         MOV     DPH,A
   \   000056   8882         MOV     DPL,R0
   \   000058   E0           MOVX    A,@DPTR
   \   000059   F9           MOV     R1,A
   \   00005A   12....       LCALL   ??SetLedStatus?relay
    405          }
   \                     ??SampleApp_MessageMSGCB_0:
   \   00005D   02....       LJMP    ??Subroutine2_0 & 0xFFFF

   \                                 In  segment BANKED_CODE, align 1, keep-with-next
   \                     ?Subroutine0:
   \   000000   EA           MOV     A,R2
   \   000001   2421         ADD     A,#0x21
   \   000003   F582         MOV     DPL,A
   \   000005   EB           MOV     A,R3
   \   000006   3400         ADDC    A,#0x0
   \   000008   F583         MOV     DPH,A
   \   00000A   E0           MOVX    A,@DPTR
   \   00000B   F8           MOV     R0,A
   \   00000C   A3           INC     DPTR
   \   00000D   E0           MOVX    A,@DPTR
   \   00000E   22           RET
    406          
    407          /*********************************************************************
    408           * @fn      SampleApp_SendPeriodicMessage
    409           *
    410           * @brief   Send the periodic message.
    411           *
    412           * @param   none
    413           *
    414           * @return  none
    415           */

   \                                 In  segment BANKED_CODE, align 1, keep-with-next
    416          void SampleApp_SendPeriodicMessage( void )
   \                     SampleApp_SendPeriodicMessage:
    417          {
   \   000000   74F6         MOV     A,#-0xa
   \   000002   12....       LCALL   ?BANKED_ENTER_XDATA
   \   000005                ; Saved register size: 10
   \   000005                ; Auto size: 0
    418            if ( AF_DataRequest( &SampleApp_Periodic_DstAddr, &SampleApp_epDesc,
    419                                 SAMPLEAPP_PERIODIC_CLUSTERID,
    420                                 1,
    421                                 (uint8*)&SampleAppPeriodicCounter,
    422                                 &SampleApp_TransID,
    423                                 AF_DISCV_ROUTE,
    424                                 AF_DEFAULT_RADIUS ) == afStatus_SUCCESS )
   \   000005                ; Setup parameters for call to function AF_DataRequest
   \   000005   75..1E       MOV     ?V0 + 0,#0x1e
   \   000008   78..         MOV     R0,#?V0 + 0
   \   00000A   12....       LCALL   ?PUSH_XSTACK_I_ONE
   \   00000D   75....       MOV     ?V0 + 0,#(SampleApp_TransID & 0xff)
   \   000010   75....       MOV     ?V0 + 1,#((SampleApp_TransID >> 8) & 0xff)
   \   000013   78..         MOV     R0,#?V0 + 0
   \   000015   12....       LCALL   ?PUSH_XSTACK_I_TWO
   \   000018   75....       MOV     ?V0 + 0,#(SampleAppPeriodicCounter & 0xff)
   \   00001B   75....       MOV     ?V0 + 1,#((SampleAppPeriodicCounter >> 8) & 0xff)
   \   00001E   78..         MOV     R0,#?V0 + 0
   \   000020   12....       LCALL   ?PUSH_XSTACK_I_TWO
   \   000023   75..01       MOV     ?V0 + 0,#0x1
   \   000026   75..00       MOV     ?V0 + 1,#0x0
   \   000029   78..         MOV     R0,#?V0 + 0
   \   00002B   12....       LCALL   ?PUSH_XSTACK_I_TWO
   \   00002E   78..         MOV     R0,#?V0 + 0
   \   000030   12....       LCALL   ?PUSH_XSTACK_I_TWO
   \   000033   7920         MOV     R1,#0x20
   \   000035   7C..         MOV     R4,#(SampleApp_epDesc & 0xff)
   \   000037   7D..         MOV     R5,#((SampleApp_epDesc >> 8) & 0xff)
   \   000039   7A..         MOV     R2,#(SampleApp_Periodic_DstAddr & 0xff)
   \   00003B   7B..         MOV     R3,#((SampleApp_Periodic_DstAddr >> 8) & 0xff)
   \   00003D   12....       LCALL   ??AF_DataRequest?relay
   \   000040   7409         MOV     A,#0x9
   \   000042   02....       LJMP    ?Subroutine1 & 0xFFFF
    425            {
    426            }
    427            else
    428            {
    429              // Error occurred in request to send.
    430            }
    431          }

   \                                 In  segment BANKED_CODE, align 1, keep-with-next
   \                     ?Subroutine1:
   \   000000   12....       LCALL   ?DEALLOC_XSTACK8
   \   000003                REQUIRE ??Subroutine2_0
   \   000003                ; // Fall through to label ??Subroutine2_0
    432          
    433          /*********************************************************************
    434           * @fn      SampleApp_SendFlashMessage
    435           *
    436           * @brief   Send the flash message to group 1.
    437           *
    438           * @param   flashTime - in milliseconds
    439           *
    440           * @return  none
    441           */

   \                                 In  segment BANKED_CODE, align 1, keep-with-next
    442          void SampleApp_SendFlashMessage( uint16 flashTime )
   \                     SampleApp_SendFlashMessage:
    443          {
   \   000000   74F6         MOV     A,#-0xa
   \   000002   12....       LCALL   ?BANKED_ENTER_XDATA
   \   000005                ; Saved register size: 10
   \   000005                ; Auto size: 3
   \   000005   74FD         MOV     A,#-0x3
   \   000007   12....       LCALL   ?ALLOC_XSTACK8
    444            uint8 buffer[3];
    445            buffer[0] = (uint8)(SampleAppFlashCounter++);
   \   00000A   90....       MOV     DPTR,#SampleAppFlashCounter
   \   00000D   E0           MOVX    A,@DPTR
   \   00000E   85..82       MOV     DPL,?XSP + 0
   \   000011   85..83       MOV     DPH,?XSP + 1
   \   000014   F0           MOVX    @DPTR,A
   \   000015   90....       MOV     DPTR,#SampleAppFlashCounter
   \   000018   E0           MOVX    A,@DPTR
   \   000019   04           INC     A
   \   00001A   F0           MOVX    @DPTR,A
    446            buffer[1] = LO_UINT16( flashTime );
   \   00001B   7401         MOV     A,#0x1
   \   00001D   12....       LCALL   ?XSTACK_DISP0_8
   \   000020   EA           MOV     A,R2
   \   000021   F0           MOVX    @DPTR,A
    447            buffer[2] = HI_UINT16( flashTime );
   \   000022   7402         MOV     A,#0x2
   \   000024   12....       LCALL   ?XSTACK_DISP0_8
   \   000027   EB           MOV     A,R3
   \   000028   F0           MOVX    @DPTR,A
    448          
    449            if ( AF_DataRequest( &SampleApp_Flash_DstAddr, &SampleApp_epDesc,
    450                                 SAMPLEAPP_FLASH_CLUSTERID,
    451                                 3,
    452                                 buffer,
    453                                 &SampleApp_TransID,
    454                                 AF_DISCV_ROUTE,
    455                                 AF_DEFAULT_RADIUS ) == afStatus_SUCCESS )
   \   000029                ; Setup parameters for call to function AF_DataRequest
   \   000029   75..1E       MOV     ?V0 + 0,#0x1e
   \   00002C   78..         MOV     R0,#?V0 + 0
   \   00002E   12....       LCALL   ?PUSH_XSTACK_I_ONE
   \   000031   75....       MOV     ?V0 + 0,#(SampleApp_TransID & 0xff)
   \   000034   75....       MOV     ?V0 + 1,#((SampleApp_TransID >> 8) & 0xff)
   \   000037   78..         MOV     R0,#?V0 + 0
   \   000039   12....       LCALL   ?PUSH_XSTACK_I_TWO
   \   00003C   7403         MOV     A,#0x3
   \   00003E   12....       LCALL   ?XSTACK_DISP0_8
   \   000041   8582..       MOV     ?V0 + 0,DPL
   \   000044   8583..       MOV     ?V0 + 1,DPH
   \   000047   78..         MOV     R0,#?V0 + 0
   \   000049   12....       LCALL   ?PUSH_XSTACK_I_TWO
   \   00004C   75..03       MOV     ?V0 + 0,#0x3
   \   00004F   75..00       MOV     ?V0 + 1,#0x0
   \   000052   78..         MOV     R0,#?V0 + 0
   \   000054   12....       LCALL   ?PUSH_XSTACK_I_TWO
   \   000057   75..02       MOV     ?V0 + 0,#0x2
   \   00005A   78..         MOV     R0,#?V0 + 0
   \   00005C   12....       LCALL   ?PUSH_XSTACK_I_TWO
   \   00005F   7920         MOV     R1,#0x20
   \   000061   7C..         MOV     R4,#(SampleApp_epDesc & 0xff)
   \   000063   7D..         MOV     R5,#((SampleApp_epDesc >> 8) & 0xff)
   \   000065   7A..         MOV     R2,#(SampleApp_Flash_DstAddr & 0xff)
   \   000067   7B..         MOV     R3,#((SampleApp_Flash_DstAddr >> 8) & 0xff)
   \   000069   12....       LCALL   ??AF_DataRequest?relay
   \   00006C   7409         MOV     A,#0x9
   \   00006E   12....       LCALL   ?DEALLOC_XSTACK8
    456            {
    457            }
    458            else
    459            {
    460              // Error occurred in request to send.
    461            }
    462          }
   \   000071   7403         MOV     A,#0x3
   \   000073   02....       LJMP    ?Subroutine1 & 0xFFFF
    463          /*********************************************************************
    464          *********************************************************************/

   \                                 In  segment BANKED_CODE, align 1, keep-with-next
    465          void SetLedStatus(uint8 status)
   \                     SetLedStatus:
    466          {
   \   000000   C082         PUSH    DPL
   \   000002   C083         PUSH    DPH
   \   000004                ; Saved register size: 2
   \   000004                ; Auto size: 0
    467          	if(status == 0x00){
   \   000004   E9           MOV     A,R1
   \   000005   7004         JNZ     ??SetLedStatus_0
    468          		HalLedSet(HAL_LED_1, HAL_LED_MODE_OFF);
   \   000007                ; Setup parameters for call to function HalLedSet
   \   000007   7A00         MOV     R2,#0x0
   \   000009   8007         SJMP    ??SetLedStatus_1
    469          	}
    470          	else if(status == 0x01){
   \                     ??SetLedStatus_0:
   \   00000B   7401         MOV     A,#0x1
   \   00000D   69           XRL     A,R1
   \   00000E   7007         JNZ     ??SetLedStatus_2
    471          		HalLedSet(HAL_LED_1, HAL_LED_MODE_ON);
   \   000010                ; Setup parameters for call to function HalLedSet
   \   000010   7A01         MOV     R2,#0x1
   \                     ??SetLedStatus_1:
   \   000012   7901         MOV     R1,#0x1
   \   000014   12....       LCALL   ??HalLedSet?relay
    472          	}
    473          }
   \                     ??SetLedStatus_2:
   \   000017   D083         POP     DPH
   \   000019   D082         POP     DPL
   \   00001B   02....       LJMP    ?BRET
    474          

   \                                 In  segment BANKED_CODE, align 1, keep-with-next
    475          void SampleApp_ProcessMTMessage(afIncomingMSGPacket_t *msg)
   \                     SampleApp_ProcessMTMessage:
    476          {
   \   000000   74F6         MOV     A,#-0xa
   \   000002   12....       LCALL   ?BANKED_ENTER_XDATA
   \   000005                ; Saved register size: 10
   \   000005                ; Auto size: 1
   \   000005   74FF         MOV     A,#-0x1
   \   000007   12....       LCALL   ?ALLOC_XSTACK8
    477          	//byte len = msg->hdr.status;
    478          	const char *msgPtr = ((const char *)msg+2);	
   \   00000A   EA           MOV     A,R2
   \   00000B   2402         ADD     A,#0x2
   \   00000D   FE           MOV     R6,A
   \   00000E   EB           MOV     A,R3
   \   00000F   3400         ADDC    A,#0x0
   \   000011   FF           MOV     R7,A
    479          	//HalUARTWrite ( 0, msgPtr, len);
    480          	uint8 status;
    481          
    482          	if(strncmp(msgPtr, "on", 2) == 0){
   \   000012                ; Setup parameters for call to function strncmp
   \   000012   75..02       MOV     ?V0 + 0,#0x2
   \   000015   75..00       MOV     ?V0 + 1,#0x0
   \   000018   78..         MOV     R0,#?V0 + 0
   \   00001A   12....       LCALL   ?PUSH_XSTACK_I_TWO
   \   00001D   7C..         MOV     R4,#(`?<Constant "on">` & 0xff)
   \   00001F   7D..         MOV     R5,#((`?<Constant "on">` >> 8) & 0xff)
   \   000021   0A           INC     R2
   \   000022   0A           INC     R2
   \   000023   EF           MOV     A,R7
   \   000024   FB           MOV     R3,A
   \   000025   12....       LCALL   ??strncmp?relay
   \   000028   7402         MOV     A,#0x2
   \   00002A   12....       LCALL   ?DEALLOC_XSTACK8
   \   00002D   EA           MOV     A,R2
   \   00002E   7001         JNZ     ??SampleApp_ProcessMTMessage_0
   \   000030   EB           MOV     A,R3
   \                     ??SampleApp_ProcessMTMessage_0:
   \   000031   7015         JNZ     ??SampleApp_ProcessMTMessage_1
    483          		status = 0x01;
   \   000033   7401         MOV     A,#0x1
   \   000035   85..82       MOV     DPL,?XSP + 0
   \   000038   85..83       MOV     DPH,?XSP + 1
   \   00003B   F0           MOVX    @DPTR,A
    484          		HalUARTWrite ( 0, "\rset led on\r", 12);
   \   00003C                ; Setup parameters for call to function HalUARTWrite
   \   00003C   7C0C         MOV     R4,#0xc
   \   00003E   7D00         MOV     R5,#0x0
   \   000040   7A..         MOV     R2,#(`?<Constant "\\rset led on\\r">` & 0xff)
   \   000042   7B..         MOV     R3,#((`?<Constant "\\rset led on\\r">` >> 8) & 0xff)
   \   000044   7900         MOV     R1,#0x0
   \   000046   802E         SJMP    ??SampleApp_ProcessMTMessage_2
    485          	}
    486          	else if(strncmp(msgPtr, "off", 3) == 0){
   \                     ??SampleApp_ProcessMTMessage_1:
   \   000048                ; Setup parameters for call to function strncmp
   \   000048   75..03       MOV     ?V0 + 0,#0x3
   \   00004B   78..         MOV     R0,#?V0 + 0
   \   00004D   12....       LCALL   ?PUSH_XSTACK_I_TWO
   \   000050   7C..         MOV     R4,#(`?<Constant "off">` & 0xff)
   \   000052   7D..         MOV     R5,#((`?<Constant "off">` >> 8) & 0xff)
   \   000054   EE           MOV     A,R6
   \   000055   FA           MOV     R2,A
   \   000056   EF           MOV     A,R7
   \   000057   FB           MOV     R3,A
   \   000058   12....       LCALL   ??strncmp?relay
   \   00005B   7402         MOV     A,#0x2
   \   00005D   12....       LCALL   ?DEALLOC_XSTACK8
   \   000060   EA           MOV     A,R2
   \   000061   7001         JNZ     ??SampleApp_ProcessMTMessage_3
   \   000063   EB           MOV     A,R3
   \                     ??SampleApp_ProcessMTMessage_3:
   \   000064   7013         JNZ     ??SampleApp_ProcessMTMessage_4
    487          		status = 0x00;
   \   000066   E4           CLR     A
   \   000067   85..82       MOV     DPL,?XSP + 0
   \   00006A   85..83       MOV     DPH,?XSP + 1
   \   00006D   F0           MOVX    @DPTR,A
    488          		HalUARTWrite ( 0, "\rset led off\r", 13);
   \   00006E                ; Setup parameters for call to function HalUARTWrite
   \   00006E   7C0D         MOV     R4,#0xd
   \   000070   FD           MOV     R5,A
   \   000071   7A..         MOV     R2,#(`?<Constant "\\rset led off\\r">` & 0xff)
   \   000073   7B..         MOV     R3,#((`?<Constant "\\rset led off\\r">` >> 8) & 0xff)
   \   000075   F9           MOV     R1,A
   \                     ??SampleApp_ProcessMTMessage_2:
   \   000076   12....       LCALL   ??HalUARTWrite?relay
    489          	}
    490          
    491            if ( AF_DataRequest( &SampleApp_Periodic_DstAddr, &SampleApp_epDesc,
    492                                 SAMPLEAPP_LEDCTL_CLUSTERID,
    493                                 1,
    494                                 &status,
    495                                 &SampleApp_TransID,
    496                                 AF_DISCV_ROUTE,
    497                                 AF_DEFAULT_RADIUS ) == afStatus_SUCCESS )
   \                     ??SampleApp_ProcessMTMessage_4:
   \   000079                ; Setup parameters for call to function AF_DataRequest
   \   000079   75..1E       MOV     ?V0 + 0,#0x1e
   \   00007C   78..         MOV     R0,#?V0 + 0
   \   00007E   12....       LCALL   ?PUSH_XSTACK_I_ONE
   \   000081   75....       MOV     ?V0 + 0,#(SampleApp_TransID & 0xff)
   \   000084   75....       MOV     ?V0 + 1,#((SampleApp_TransID >> 8) & 0xff)
   \   000087   78..         MOV     R0,#?V0 + 0
   \   000089   12....       LCALL   ?PUSH_XSTACK_I_TWO
   \   00008C   7403         MOV     A,#0x3
   \   00008E   12....       LCALL   ?XSTACK_DISP0_8
   \   000091   8582..       MOV     ?V0 + 0,DPL
   \   000094   8583..       MOV     ?V0 + 1,DPH
   \   000097   78..         MOV     R0,#?V0 + 0
   \   000099   12....       LCALL   ?PUSH_XSTACK_I_TWO
   \   00009C   75..01       MOV     ?V0 + 0,#0x1
   \   00009F   75..00       MOV     ?V0 + 1,#0x0
   \   0000A2   78..         MOV     R0,#?V0 + 0
   \   0000A4   12....       LCALL   ?PUSH_XSTACK_I_TWO
   \   0000A7   75..03       MOV     ?V0 + 0,#0x3
   \   0000AA   78..         MOV     R0,#?V0 + 0
   \   0000AC   12....       LCALL   ?PUSH_XSTACK_I_TWO
   \   0000AF   7920         MOV     R1,#0x20
   \   0000B1   7C..         MOV     R4,#(SampleApp_epDesc & 0xff)
   \   0000B3   7D..         MOV     R5,#((SampleApp_epDesc >> 8) & 0xff)
   \   0000B5   7A..         MOV     R2,#(SampleApp_Periodic_DstAddr & 0xff)
   \   0000B7   7B..         MOV     R3,#((SampleApp_Periodic_DstAddr >> 8) & 0xff)
   \   0000B9   12....       LCALL   ??AF_DataRequest?relay
   \   0000BC   7409         MOV     A,#0x9
   \   0000BE   12....       LCALL   ?DEALLOC_XSTACK8
    498            {
    499            }
    500            else
    501            {
    502              // Error occurred in request to send.
    503            }
    504          	
    505          }
   \   0000C1   7401         MOV     A,#0x1
   \   0000C3                REQUIRE ?Subroutine1
   \   0000C3                ; // Fall through to label ?Subroutine1

   \                                 In  segment BANK_RELAYS, align 1
   \                     ??SampleApp_Init?relay:
   \   000000   12....       LCALL   ?BDISPATCH
   \   000003   ......       DC24    SampleApp_Init

   \                                 In  segment BANK_RELAYS, align 1
   \                     ??SampleApp_ProcessEvent?relay:
   \   000000   12....       LCALL   ?BDISPATCH
   \   000003   ......       DC24    SampleApp_ProcessEvent

   \                                 In  segment BANK_RELAYS, align 1
   \                     ??SampleApp_HandleKeys?relay:
   \   000000   12....       LCALL   ?BDISPATCH
   \   000003   ......       DC24    SampleApp_HandleKeys

   \                                 In  segment BANK_RELAYS, align 1
   \                     ??SampleApp_MessageMSGCB?relay:
   \   000000   12....       LCALL   ?BDISPATCH
   \   000003   ......       DC24    SampleApp_MessageMSGCB

   \                                 In  segment BANK_RELAYS, align 1
   \                     ??SampleApp_SendPeriodicMessage?relay:
   \   000000   12....       LCALL   ?BDISPATCH
   \   000003   ......       DC24    SampleApp_SendPeriodicMessage

   \                                 In  segment BANK_RELAYS, align 1
   \                     ??SampleApp_SendFlashMessage?relay:
   \   000000   12....       LCALL   ?BDISPATCH
   \   000003   ......       DC24    SampleApp_SendFlashMessage

   \                                 In  segment BANK_RELAYS, align 1
   \                     ??SetLedStatus?relay:
   \   000000   12....       LCALL   ?BDISPATCH
   \   000003   ......       DC24    SetLedStatus

   \                                 In  segment BANK_RELAYS, align 1
   \                     ??SampleApp_ProcessMTMessage?relay:
   \   000000   12....       LCALL   ?BDISPATCH
   \   000003   ......       DC24    SampleApp_ProcessMTMessage

   \                                 In  segment XDATA_ROM_C, align 1
   \                     `?<Constant "Group 1">`:
   \   000000   47726F75     DB "Group 1"
   \            70203100

   \                                 In  segment XDATA_ROM_C, align 1
   \                     `?<Constant "SampleApp">`:
   \   000000   53616D70     DB "SampleApp"
   \            6C654170
   \            7000    

   \                                 In  segment XDATA_ROM_C, align 1
   \                     `?<Constant "\\rset led on\\r">`:
   \   000000   0D736574     DB "\015set led on\015"
   \            206C6564
   \            206F6E0D
   \            00      

   \                                 In  segment XDATA_ROM_C, align 1
   \                     `?<Constant "\\rset led off\\r">`:
   \   000000   0D736574     DB "\015set led off\015"
   \            206C6564
   \            206F6666
   \            0D00    

   \                                 In  segment XDATA_ROM_C, align 1
   \                     `?<Constant "off">`:
   \   000000   6F666600     DB "off"

   \                                 In  segment XDATA_ROM_C, align 1
   \                     `?<Constant "on">`:
   \   000000   6F6E00       DB "on"
    506          /*********************************************************************
    507          *********************************************************************/

   Maximum stack usage in bytes:

     Function                       ISTACK PSTACK XSTACK
     --------                       ------ ------ ------
     SampleApp_HandleKeys               0      0     22
       -> SampleApp_SendFlashMessage
                                        0      0     20
       -> aps_FindGroup                 0      0     20
       -> aps_RemoveGroup               0      0     20
       -> aps_AddGroup                  0      0     20
     SampleApp_Init                     0      0     14
       -> readCoordinatorJumper         0      0     22
       -> ZDOInitDevice                 0      0     22
       -> afRegister                    0      0     22
       -> RegisterForKeys               0      0     22
       -> MT_UartRegisterTaskID         0      0     22
       -> osal_memcpy                   0      0     28
       -> aps_AddGroup                  0      0     22
       -> HalLcdWriteString             0      0     22
     SampleApp_MessageMSGCB             0      0     22
       -> HalLedBlink                   0      0     20
       -> SetLedStatus                  0      0     20
     SampleApp_ProcessEvent             0      0     12
       -> osal_msg_receive              0      0     24
       -> osal_start_timerEx            0      0     24
       -> osal_msg_deallocate           0      0     24
       -> osal_msg_receive              0      0     24
       -> SampleApp_HandleKeys          0      0     24
       -> SampleApp_MessageMSGCB        0      0     24
       -> SampleApp_ProcessMTMessage
                                        0      0     24
       -> MT_UartAppFlowControl         0      0     24
       -> SampleApp_SendPeriodicMessage
                                        0      0     24
       -> osal_rand                     0      0     24
       -> osal_start_timerEx            0      0     24
     SampleApp_ProcessMTMessage         1      0     32
       -> strncmp                       0      0     26
       -> HalUARTWrite                  0      0     22
       -> strncmp                       0      0     26
       -> HalUARTWrite                  0      0     22
       -> AF_DataRequest                0      0     40
     SampleApp_SendFlashMessage         1      0     32
       -> AF_DataRequest                0      0     44
     SampleApp_SendPeriodicMessage      0      0     31
       -> AF_DataRequest                0      0     38
     SetLedStatus                       2      0     10
       -> HalLedSet                     4      0      0
       -> HalLedSet                     4      0      0


   Segment part sizes:

     Function/Label                        Bytes
     --------------                        -----
     SampleApp_ClusterList                    6
     SampleApp_SimpleDesc                    12
     SampleApp_epDesc                         6
     SampleApp_TaskID                         1
     SampleApp_NwkState                       1
     SampleApp_TransID                        1
     SampleApp_Periodic_DstAddr              12
     SampleApp_Flash_DstAddr                 12
     SampleApp_Group                         18
     SampleAppPeriodicCounter                 1
     SampleAppFlashCounter                    1
     SampleApp_Init                         199
     SampleApp_ProcessEvent                 228
     SampleApp_HandleKeys                    61
     ??Subroutine2_0                          5
     SampleApp_MessageMSGCB                  96
     ?Subroutine0                            15
     SampleApp_SendPeriodicMessage           69
     ?Subroutine1                             3
     SampleApp_SendFlashMessage             118
     SetLedStatus                            30
     SampleApp_ProcessMTMessage             195
     ??SampleApp_Init?relay                   6
     ??SampleApp_ProcessEvent?relay           6
     ??SampleApp_HandleKeys?relay             6
     ??SampleApp_MessageMSGCB?relay           6
     ??SampleApp_SendPeriodicMessage?relay    6
     ??SampleApp_SendFlashMessage?relay       6
     ??SetLedStatus?relay                     6
     ??SampleApp_ProcessMTMessage?relay       6
     ?<Constant "Group 1">                    8
     ?<Constant "SampleApp">                 10
     ?<Constant "\rset led on\r">            13
     ?<Constant "\rset led off\r">           14
     ?<Constant "off">                        4
     ?<Constant "on">                         3

 
 1 019 bytes in segment BANKED_CODE
    48 bytes in segment BANK_RELAYS
    70 bytes in segment XDATA_ROM_C
    53 bytes in segment XDATA_Z
 
 1 067 bytes of CODE  memory
    70 bytes of CONST memory
    53 bytes of XDATA memory

Errors: none
Warnings: none
